
========================================================================

** ELF Header Information

    File Name: .\obj\Smpl_Start_Kit.axf

    Machine class: ELFCLASS32 (32-bit)
    Data encoding: ELFDATA2LSB (Little endian)
    Header version: EV_CURRENT (Current version)
    Operating System ABI: none
    ABI Version: 0
    File Type: ET_EXEC (Executable) (2)
    Machine: EM_ARM (ARM)

    Image Entry point: 0x00000179
    Flags: EF_ARM_HASENTRY (0x05000002)

    ARM ELF revision: 5 (ABI version 2)

    Built with
    ARM C/C++ Compiler, 4.1 [Build 894]
    ARM Assembler, 4.1 [Build 894]
    ARM Linker, 4.1 [Build 894] 

    Header size: 52 bytes (0x34)
    Program header entry size: 32 bytes (0x20)
    Section header entry size: 40 bytes (0x28)

    Program header entries: 1
    Section header entries: 16

    Program header offset: 298692 (0x00048ec4)
    Section header offset: 298724 (0x00048ee4)

    Section header string table index: 15

========================================================================

** Program header #0 (PT_LOAD) [PF_X + PF_W + PF_R + PF_ARM_ENTRY]
    Size : 7744 bytes (6544 bytes in file)
    Virtual address: 0x00000000 (Alignment 8)


========================================================================

** Section #1 'ER_RO' (SHT_PROGBITS) [SHF_ALLOC + SHF_EXECINSTR]
    Size   : 4944 bytes (alignment 4)
    Address: 0x00000000

    $d.realdata
    RESET
    __Vectors
        0x00000000:    20000af0    ...     DCD    536873712
        0x00000004:    00000179    y...    DCD    377
        0x00000008:    00000199    ....    DCD    409
        0x0000000c:    0000019b    ....    DCD    411
        0x00000010:    00000000    ....    DCD    0
        0x00000014:    00000000    ....    DCD    0
        0x00000018:    00000000    ....    DCD    0
        0x0000001c:    00000000    ....    DCD    0
        0x00000020:    00000000    ....    DCD    0
        0x00000024:    00000000    ....    DCD    0
        0x00000028:    00000000    ....    DCD    0
        0x0000002c:    0000019d    ....    DCD    413
        0x00000030:    00000000    ....    DCD    0
        0x00000034:    00000000    ....    DCD    0
        0x00000038:    0000019f    ....    DCD    415
        0x0000003c:    000001a1    ....    DCD    417
        0x00000040:    00000655    U...    DCD    1621
        0x00000044:    000001a3    ....    DCD    419
        0x00000048:    00000979    y...    DCD    2425
        0x0000004c:    0000099d    ....    DCD    2461
        0x00000050:    000009c1    ....    DCD    2497
        0x00000054:    000009fd    ....    DCD    2557
        0x00000058:    000001a3    ....    DCD    419
        0x0000005c:    000001a3    ....    DCD    419
        0x00000060:    000001a3    ....    DCD    419
        0x00000064:    000001a3    ....    DCD    419
        0x00000068:    000001a3    ....    DCD    419
        0x0000006c:    000001a3    ....    DCD    419
        0x00000070:    0000101d    ....    DCD    4125
        0x00000074:    00001059    Y...    DCD    4185
        0x00000078:    00000c7d    }...    DCD    3197
        0x0000007c:    00000ce1    ....    DCD    3297
        0x00000080:    00000d45    E...    DCD    3397
        0x00000084:    00000da9    ....    DCD    3497
        0x00000088:    000001a3    ....    DCD    419
        0x0000008c:    000001a3    ....    DCD    419
        0x00000090:    000001a3    ....    DCD    419
        0x00000094:    000001a3    ....    DCD    419
        0x00000098:    000001a3    ....    DCD    419
        0x0000009c:    000001a3    ....    DCD    419
        0x000000a0:    000001a3    ....    DCD    419
        0x000000a4:    000001a3    ....    DCD    419
        0x000000a8:    000001a3    ....    DCD    419
        0x000000ac:    000001a3    ....    DCD    419
        0x000000b0:    00000c55    U...    DCD    3157
        0x000000b4:    000001a3    ....    DCD    419
        0x000000b8:    000001a3    ....    DCD    419
        0x000000bc:    000001a3    ....    DCD    419
    $t
    !!!main
    __main
        0x000000c0:    f000f802    ....    BL       __scatterload ; 0xc8
        0x000000c4:    f000f848    ..H.    BL       __rt_entry ; 0x158
    !!!scatter
    __scatterload
    __scatterload_rt2
    __scatterload_rt2_thumb_only
        0x000000c8:    a00c        ..      ADR      r0,{pc}+0x34 ; 0xfc
        0x000000ca:    c830        0.      LDM      r0!,{r4,r5}
        0x000000cc:    3808        .8      SUBS     r0,r0,#8
        0x000000ce:    1824        $.      ADDS     r4,r4,r0
        0x000000d0:    182d        -.      ADDS     r5,r5,r0
        0x000000d2:    46a2        .F      MOV      r10,r4
        0x000000d4:    1e67        g.      SUBS     r7,r4,#1
        0x000000d6:    46ab        .F      MOV      r11,r5
    __scatterload_null
        0x000000d8:    4654        TF      MOV      r4,r10
        0x000000da:    465d        ]F      MOV      r5,r11
        0x000000dc:    42ac        .B      CMP      r4,r5
        0x000000de:    d101        ..      BNE      0xe4 ; __scatterload_null + 12
        0x000000e0:    f000f83a    ..:.    BL       __rt_entry ; 0x158
        0x000000e4:    467e        ~F      MOV      r6,pc
        0x000000e6:    3e0f        .>      SUBS     r6,r6,#0xf
        0x000000e8:    cc0f        ..      LDM      r4!,{r0-r3}
        0x000000ea:    46b6        .F      MOV      lr,r6
        0x000000ec:    2601        .&      MOVS     r6,#1
        0x000000ee:    4233        3B      TST      r3,r6
        0x000000f0:    d000        ..      BEQ      0xf4 ; __scatterload_null + 28
        0x000000f2:    1afb        ..      SUBS     r3,r7,r3
        0x000000f4:    46a2        .F      MOV      r10,r4
        0x000000f6:    46ab        .F      MOV      r11,r5
        0x000000f8:    4333        3C      ORRS     r3,r3,r6
        0x000000fa:    4718        .G      BX       r3
    $d
        0x000000fc:    00001234    4...    DCD    4660
        0x00000100:    00001254    T...    DCD    4692
    $t
    !!handler_copy
    __scatterload_copy
        0x00000104:    3a10        .:      SUBS     r2,r2,#0x10
        0x00000106:    d302        ..      BCC      0x10e ; __scatterload_copy + 10
        0x00000108:    c878        x.      LDM      r0!,{r3-r6}
        0x0000010a:    c178        x.      STM      r1!,{r3-r6}
        0x0000010c:    d8fa        ..      BHI      __scatterload_copy ; 0x104
        0x0000010e:    0752        R.      LSLS     r2,r2,#29
        0x00000110:    d301        ..      BCC      0x116 ; __scatterload_copy + 18
        0x00000112:    c830        0.      LDM      r0!,{r4,r5}
        0x00000114:    c130        0.      STM      r1!,{r4,r5}
        0x00000116:    d501        ..      BPL      0x11c ; __scatterload_copy + 24
        0x00000118:    6804        .h      LDR      r4,[r0,#0]
        0x0000011a:    600c        .`      STR      r4,[r1,#0]
        0x0000011c:    4770        pG      BX       lr
        0x0000011e:    0000        ..      MOVS     r0,r0
    !!handler_zi
    __scatterload_zeroinit
        0x00000120:    2300        .#      MOVS     r3,#0
        0x00000122:    2400        .$      MOVS     r4,#0
        0x00000124:    2500        .%      MOVS     r5,#0
        0x00000126:    2600        .&      MOVS     r6,#0
        0x00000128:    3a10        .:      SUBS     r2,r2,#0x10
        0x0000012a:    d301        ..      BCC      0x130 ; __scatterload_zeroinit + 16
        0x0000012c:    c178        x.      STM      r1!,{r3-r6}
        0x0000012e:    d8fb        ..      BHI      0x128 ; __scatterload_zeroinit + 8
        0x00000130:    0752        R.      LSLS     r2,r2,#29
        0x00000132:    d300        ..      BCC      0x136 ; __scatterload_zeroinit + 22
        0x00000134:    c130        0.      STM      r1!,{r4,r5}
        0x00000136:    d500        ..      BPL      0x13a ; __scatterload_zeroinit + 26
        0x00000138:    600b        .`      STR      r3,[r1,#0]
        0x0000013a:    4770        pG      BX       lr
    .ARM.Collect$$_printf_percent$$00000000
    _printf_percent
        0x0000013c:    b510        ..      PUSH     {r4,lr}
    .ARM.Collect$$_printf_percent$$00000009
    _printf_d
        0x0000013e:    2964        d)      CMP      r1,#0x64
        0x00000140:    d102        ..      BNE      _printf_percent_end ; 0x148
        0x00000142:    f000f85f    .._.    BL       _printf_int_dec ; 0x204
        0x00000146:    bd10        ..      POP      {r4,pc}
    .ARM.Collect$$_printf_percent$$00000017
    _printf_percent_end
        0x00000148:    2000        .       MOVS     r0,#0
        0x0000014a:    bd10        ..      POP      {r4,pc}
    .ARM.Collect$$libinit$$00000000
    __rt_lib_init
        0x0000014c:    b51f        ..      PUSH     {r0-r4,lr}
        0x0000014e:    46c0        .F      MOV      r8,r8
        0x00000150:    46c0        .F      MOV      r8,r8
    .ARM.Collect$$libinit$$00000006
    .ARM.Collect$$libinit$$00000008
    .ARM.Collect$$libinit$$0000000A
    .ARM.Collect$$libinit$$0000000D
    .ARM.Collect$$libinit$$0000000F
    .ARM.Collect$$libinit$$00000011
    .ARM.Collect$$libinit$$00000013
    .ARM.Collect$$libinit$$00000015
    .ARM.Collect$$libinit$$00000017
    .ARM.Collect$$libinit$$00000019
    .ARM.Collect$$libinit$$0000001B
    .ARM.Collect$$libinit$$0000001D
    .ARM.Collect$$libinit$$0000001F
    .ARM.Collect$$libinit$$00000021
    .ARM.Collect$$libinit$$00000028
    .ARM.Collect$$libinit$$0000002A
    .ARM.Collect$$libinit$$0000002C
    .ARM.Collect$$libinit$$0000002E
    .ARM.Collect$$libinit$$0000002F
    __rt_lib_init_alloca_1
    __rt_lib_init_argv_1
    __rt_lib_init_atexit_1
    __rt_lib_init_clock_1
    __rt_lib_init_cpp_1
    __rt_lib_init_exceptions_1
    __rt_lib_init_fp_trap_1
    __rt_lib_init_getenv_1
    __rt_lib_init_heap_1
    __rt_lib_init_lc_collate_1
    __rt_lib_init_lc_ctype_1
    __rt_lib_init_lc_monetary_1
    __rt_lib_init_lc_numeric_1
    __rt_lib_init_lc_time_1
    __rt_lib_init_rand_1
    __rt_lib_init_return
    __rt_lib_init_signal_1
    __rt_lib_init_stdio_1
    __rt_lib_init_user_alloc_1
        0x00000152:    bd1f        ..      POP      {r0-r4,pc}
    .ARM.Collect$$libshutdown$$00000000
    __rt_lib_shutdown
        0x00000154:    b510        ..      PUSH     {r4,lr}
    .ARM.Collect$$libshutdown$$00000003
    .ARM.Collect$$libshutdown$$00000006
    .ARM.Collect$$libshutdown$$00000009
    .ARM.Collect$$libshutdown$$0000000B
    .ARM.Collect$$libshutdown$$0000000E
    .ARM.Collect$$libshutdown$$0000000F
    __rt_lib_shutdown_fp_trap_1
    __rt_lib_shutdown_heap_1
    __rt_lib_shutdown_return
    __rt_lib_shutdown_signal_1
    __rt_lib_shutdown_stdio_1
    __rt_lib_shutdown_user_alloc_1
        0x00000156:    bd10        ..      POP      {r4,pc}
    .ARM.Collect$$rtentry$$00000000
    .ARM.Collect$$rtentry$$00000002
    .ARM.Collect$$rtentry$$00000004
    __rt_entry
    __rt_entry_presh_1
    __rt_entry_sh
        0x00000158:    f000fa4b    ..K.    BL       __user_setup_stackheap ; 0x5f2
        0x0000015c:    4611        .F      MOV      r1,r2
    .ARM.Collect$$rtentry$$00000009
    .ARM.Collect$$rtentry$$0000000A
    __rt_entry_li
    __rt_entry_postsh_1
        0x0000015e:    f7fffff5    ....    BL       __rt_lib_init ; 0x14c
    .ARM.Collect$$rtentry$$0000000C
    .ARM.Collect$$rtentry$$0000000D
    __rt_entry_main
    __rt_entry_postli_1
        0x00000162:    f000ffd1    ....    BL       main ; 0x1108
        0x00000166:    f000fa63    ..c.    BL       exit ; 0x630
    .ARM.Collect$$rtexit$$00000000
    __rt_exit
        0x0000016a:    b403        ..      PUSH     {r0,r1}
    .ARM.Collect$$rtexit$$00000002
    .ARM.Collect$$rtexit$$00000003
    __rt_exit_ls
    __rt_exit_prels_1
        0x0000016c:    f7fffff2    ....    BL       __rt_lib_shutdown ; 0x154
    .ARM.Collect$$rtexit$$00000004
    __rt_exit_exit
        0x00000170:    bc03        ..      POP      {r0,r1}
        0x00000172:    f000fa67    ..g.    BL       _sys_exit ; 0x644
        0x00000176:    0000        ..      MOVS     r0,r0
    .text
    Reset_Handler
        0x00000178:    480d        .H      LDR      r0,[pc,#52] ; [0x1b0] = 0x50000100
        0x0000017a:    490e        .I      LDR      r1,[pc,#56] ; [0x1b4] = 0x59
        0x0000017c:    6001        .`      STR      r1,[r0,#0]
        0x0000017e:    490e        .I      LDR      r1,[pc,#56] ; [0x1b8] = 0x16
        0x00000180:    6001        .`      STR      r1,[r0,#0]
        0x00000182:    490e        .I      LDR      r1,[pc,#56] ; [0x1bc] = 0x88
        0x00000184:    6001        .`      STR      r1,[r0,#0]
        0x00000186:    4a0e        .J      LDR      r2,[pc,#56] ; [0x1c0] = 0x50000024
        0x00000188:    490e        .I      LDR      r1,[pc,#56] ; [0x1c4] = 0x5aa5
        0x0000018a:    6011        .`      STR      r1,[r2,#0]
        0x0000018c:    2100        .!      MOVS     r1,#0
        0x0000018e:    6001        .`      STR      r1,[r0,#0]
        0x00000190:    480d        .H      LDR      r0,[pc,#52] ; [0x1c8] = 0x1019
        0x00000192:    4780        .G      BLX      r0
        0x00000194:    480d        .H      LDR      r0,[pc,#52] ; [0x1cc] = 0xc1
        0x00000196:    4700        .G      BX       r0
    NMI_Handler
        0x00000198:    e7fe        ..      B        NMI_Handler ; 0x198
    HardFault_Handler
        0x0000019a:    e7fe        ..      B        HardFault_Handler ; 0x19a
    SVC_Handler
        0x0000019c:    e7fe        ..      B        SVC_Handler ; 0x19c
    PendSV_Handler
        0x0000019e:    e7fe        ..      B        PendSV_Handler ; 0x19e
    SysTick_Handler
        0x000001a0:    e7fe        ..      B        SysTick_Handler ; 0x1a0
    Default_Handler
    ACMP_IRQHandler
    ADC_IRQHandler
    CAN0_IRQHandler
    I2C0_IRQHandler
    I2C1_IRQHandler
    I2S_IRQHandler
    PDMA_IRQHandler
    PS2_IRQHandler
    PWMA_IRQHandler
    PWMB_IRQHandler
    RTC_IRQHandler
    TMR0_IRQHandler
    TMR1_IRQHandler
    TMR2_IRQHandler
    TMR3_IRQHandler
    USBD_IRQHandler
    WDT_IRQHandler
        0x000001a2:    e7fe        ..      B        Default_Handler ; 0x1a2
    __user_initial_stackheap
        0x000001a4:    480a        .H      LDR      r0,[pc,#40] ; [0x1d0] = 0x200006f0
        0x000001a6:    490b        .I      LDR      r1,[pc,#44] ; [0x1d4] = 0x20000af0
        0x000001a8:    4a09        .J      LDR      r2,[pc,#36] ; [0x1d0] = 0x200006f0
        0x000001aa:    4b0b        .K      LDR      r3,[pc,#44] ; [0x1d8] = 0x200006f0
        0x000001ac:    4770        pG      BX       lr
    $d
        0x000001ae:    0000        ..      DCW    0
        0x000001b0:    50000100    ...P    DCD    1342177536
        0x000001b4:    00000059    Y...    DCD    89
        0x000001b8:    00000016    ....    DCD    22
        0x000001bc:    00000088    ....    DCD    136
        0x000001c0:    50000024    $..P    DCD    1342177316
        0x000001c4:    00005aa5    .Z..    DCD    23205
        0x000001c8:    00001019    ....    DCD    4121
        0x000001cc:    000000c1    ....    DCD    193
        0x000001d0:    200006f0    ...     DCD    536872688
        0x000001d4:    20000af0    ...     DCD    536873712
        0x000001d8:    200006f0    ...     DCD    536872688
    $t
    .text
    __2sprintf
        0x000001dc:    b40f        ..      PUSH     {r0-r3}
        0x000001de:    b51c        ..      PUSH     {r2-r4,lr}
        0x000001e0:    4b07        .K      LDR      r3,[pc,#28] ; [0x200] = 0x3d9
        0x000001e2:    aa06        ..      ADD      r2,sp,#0x18
        0x000001e4:    447b        {D      ADD      r3,r3,pc
        0x000001e6:    4669        iF      MOV      r1,sp
        0x000001e8:    9000        ..      STR      r0,[sp,#0]
        0x000001ea:    9805        ..      LDR      r0,[sp,#0x14]
        0x000001ec:    f000f9d5    ....    BL       _printf_char_common ; 0x59a
        0x000001f0:    2000        .       MOVS     r0,#0
        0x000001f2:    4669        iF      MOV      r1,sp
        0x000001f4:    f000f9e4    ....    BL       _sputc ; 0x5c0
        0x000001f8:    bc1c        ..      POP      {r2-r4}
        0x000001fa:    bc08        ..      POP      {r3}
        0x000001fc:    b004        ..      ADD      sp,sp,#0x10
        0x000001fe:    4718        .G      BX       r3
    $d
        0x00000200:    000003d9    ....    DCD    985
    $t
    .text
    _printf_int_dec
        0x00000204:    b5f7        ..      PUSH     {r0-r2,r4-r7,lr}
        0x00000206:    2600        .&      MOVS     r6,#0
        0x00000208:    2975        u)      CMP      r1,#0x75
        0x0000020a:    6810        .h      LDR      r0,[r2,#0]
        0x0000020c:    9900        ..      LDR      r1,[sp,#0]
        0x0000020e:    a514        ..      ADR      r5,{pc}+0x52 ; 0x260
        0x00000210:    d011        ..      BEQ      0x236 ; _printf_int_dec + 50
        0x00000212:    46c0        .F      MOV      r8,r8
        0x00000214:    46c0        .F      MOV      r8,r8
        0x00000216:    2800        .(      CMP      r0,#0
        0x00000218:    da02        ..      BGE      0x220 ; _printf_int_dec + 28
        0x0000021a:    4240        @B      RSBS     r0,r0,#0
        0x0000021c:    a511        ..      ADR      r5,{pc}+0x48 ; 0x264
        0x0000021e:    e008        ..      B        0x232 ; _printf_int_dec + 46
        0x00000220:    9900        ..      LDR      r1,[sp,#0]
        0x00000222:    6809        .h      LDR      r1,[r1,#0]
        0x00000224:    078a        ..      LSLS     r2,r1,#30
        0x00000226:    d501        ..      BPL      0x22c ; _printf_int_dec + 40
        0x00000228:    a50f        ..      ADR      r5,{pc}+0x40 ; 0x268
        0x0000022a:    e002        ..      B        0x232 ; _printf_int_dec + 46
        0x0000022c:    0749        I.      LSLS     r1,r1,#29
        0x0000022e:    d504        ..      BPL      0x23a ; _printf_int_dec + 54
        0x00000230:    a50e        ..      ADR      r5,{pc}+0x3c ; 0x26c
        0x00000232:    2601        .&      MOVS     r6,#1
        0x00000234:    e001        ..      B        0x23a ; _printf_int_dec + 54
        0x00000236:    46c0        .F      MOV      r8,r8
        0x00000238:    46c0        .F      MOV      r8,r8
        0x0000023a:    9f00        ..      LDR      r7,[sp,#0]
        0x0000023c:    2400        .$      MOVS     r4,#0
        0x0000023e:    3724        $7      ADDS     r7,r7,#0x24
        0x00000240:    e004        ..      B        0x24c ; _printf_int_dec + 72
        0x00000242:    f000f9c2    ....    BL       __rt_udiv10 ; 0x5ca
        0x00000246:    3130        01      ADDS     r1,r1,#0x30
        0x00000248:    5539        9U      STRB     r1,[r7,r4]
        0x0000024a:    1c64        d.      ADDS     r4,r4,#1
        0x0000024c:    2800        .(      CMP      r0,#0
        0x0000024e:    d1f8        ..      BNE      0x242 ; _printf_int_dec + 62
        0x00000250:    4633        3F      MOV      r3,r6
        0x00000252:    462a        *F      MOV      r2,r5
        0x00000254:    4621        !F      MOV      r1,r4
        0x00000256:    9800        ..      LDR      r0,[sp,#0]
        0x00000258:    f000f942    ..B.    BL       _printf_int_common ; 0x4e0
        0x0000025c:    bdfe        ..      POP      {r1-r7,pc}
    $d
        0x0000025e:    0000        ..      DCW    0
        0x00000260:    00000000    ....    DCD    0
        0x00000264:    0000002d    -...    DCD    45
        0x00000268:    0000002b    +...    DCD    43
        0x0000026c:    00000020     ...    DCD    32
    $t
    .text
    __printf
        0x00000270:    b5f3        ..      PUSH     {r0,r1,r4-r7,lr}
        0x00000272:    4604        .F      MOV      r4,r0
        0x00000274:    2000        .       MOVS     r0,#0
        0x00000276:    b081        ..      SUB      sp,sp,#4
        0x00000278:    e07e        ~.      B        0x378 ; __printf + 264
        0x0000027a:    68e1        .h      LDR      r1,[r4,#0xc]
        0x0000027c:    4620         F      MOV      r0,r4
        0x0000027e:    4788        .G      BLX      r1
        0x00000280:    2800        .(      CMP      r0,#0
        0x00000282:    d07b        {.      BEQ      0x37c ; __printf + 268
        0x00000284:    2825        %(      CMP      r0,#0x25
        0x00000286:    d002        ..      BEQ      0x28e ; __printf + 30
        0x00000288:    6862        bh      LDR      r2,[r4,#4]
        0x0000028a:    68a1        .h      LDR      r1,[r4,#8]
        0x0000028c:    e071        q.      B        0x372 ; __printf + 258
        0x0000028e:    68e1        .h      LDR      r1,[r4,#0xc]
        0x00000290:    4620         F      MOV      r0,r4
        0x00000292:    2500        .%      MOVS     r5,#0
        0x00000294:    4788        .G      BLX      r1
        0x00000296:    4606        .F      MOV      r6,r0
        0x00000298:    2000        .       MOVS     r0,#0
        0x0000029a:    61e0        .a      STR      r0,[r4,#0x1c]
        0x0000029c:    4607        .F      MOV      r7,r0
        0x0000029e:    61a0        .a      STR      r0,[r4,#0x18]
        0x000002a0:    2e2a        *.      CMP      r6,#0x2a
        0x000002a2:    d00a        ..      BEQ      0x2ba ; __printf + 74
        0x000002a4:    4630        0F      MOV      r0,r6
        0x000002a6:    f000ff13    ....    BL       _is_digit ; 0x10d0
        0x000002aa:    2800        .(      CMP      r0,#0
        0x000002ac:    d027        '.      BEQ      0x2fe ; __printf + 142
        0x000002ae:    3e30        0>      SUBS     r6,r6,#0x30
        0x000002b0:    00b8        ..      LSLS     r0,r7,#2
        0x000002b2:    1900        ..      ADDS     r0,r0,r4
        0x000002b4:    9000        ..      STR      r0,[sp,#0]
        0x000002b6:    6186        .a      STR      r6,[r0,#0x18]
        0x000002b8:    e019        ..      B        0x2ee ; __printf + 126
        0x000002ba:    9802        ..      LDR      r0,[sp,#8]
        0x000002bc:    00ba        ..      LSLS     r2,r7,#2
        0x000002be:    1912        ..      ADDS     r2,r2,r4
        0x000002c0:    c802        ..      LDM      r0!,{r1}
        0x000002c2:    6191        .a      STR      r1,[r2,#0x18]
        0x000002c4:    9002        ..      STR      r0,[sp,#8]
        0x000002c6:    4620         F      MOV      r0,r4
        0x000002c8:    68e1        .h      LDR      r1,[r4,#0xc]
        0x000002ca:    4788        .G      BLX      r1
        0x000002cc:    2f01        ./      CMP      r7,#1
        0x000002ce:    4606        .F      MOV      r6,r0
        0x000002d0:    d117        ..      BNE      0x302 ; __printf + 146
        0x000002d2:    69e0        .i      LDR      r0,[r4,#0x1c]
        0x000002d4:    2800        .(      CMP      r0,#0
        0x000002d6:    da1f        ..      BGE      0x318 ; __printf + 168
        0x000002d8:    2020                MOVS     r0,#0x20
        0x000002da:    4385        .C      BICS     r5,r5,r0
        0x000002dc:    e01c        ..      B        0x318 ; __printf + 168
        0x000002de:    9800        ..      LDR      r0,[sp,#0]
        0x000002e0:    210a        .!      MOVS     r1,#0xa
        0x000002e2:    6980        .i      LDR      r0,[r0,#0x18]
        0x000002e4:    4348        HC      MULS     r0,r1,r0
        0x000002e6:    9900        ..      LDR      r1,[sp,#0]
        0x000002e8:    1980        ..      ADDS     r0,r0,r6
        0x000002ea:    3830        08      SUBS     r0,r0,#0x30
        0x000002ec:    6188        .a      STR      r0,[r1,#0x18]
        0x000002ee:    4620         F      MOV      r0,r4
        0x000002f0:    68e1        .h      LDR      r1,[r4,#0xc]
        0x000002f2:    4788        .G      BLX      r1
        0x000002f4:    4606        .F      MOV      r6,r0
        0x000002f6:    f000feeb    ....    BL       _is_digit ; 0x10d0
        0x000002fa:    2800        .(      CMP      r0,#0
        0x000002fc:    d1ef        ..      BNE      0x2de ; __printf + 110
        0x000002fe:    2f01        ./      CMP      r7,#1
        0x00000300:    d00a        ..      BEQ      0x318 ; __printf + 168
        0x00000302:    2e2e        ..      CMP      r6,#0x2e
        0x00000304:    d108        ..      BNE      0x318 ; __printf + 168
        0x00000306:    4620         F      MOV      r0,r4
        0x00000308:    68e1        .h      LDR      r1,[r4,#0xc]
        0x0000030a:    4788        .G      BLX      r1
        0x0000030c:    4606        .F      MOV      r6,r0
        0x0000030e:    2020                MOVS     r0,#0x20
        0x00000310:    4305        .C      ORRS     r5,r5,r0
        0x00000312:    1c7f        ..      ADDS     r7,r7,#1
        0x00000314:    2f02        ./      CMP      r7,#2
        0x00000316:    dbc3        ..      BLT      0x2a0 ; __printf + 48
        0x00000318:    69a0        .i      LDR      r0,[r4,#0x18]
        0x0000031a:    2800        .(      CMP      r0,#0
        0x0000031c:    da03        ..      BGE      0x326 ; __printf + 182
        0x0000031e:    4240        @B      RSBS     r0,r0,#0
        0x00000320:    61a0        .a      STR      r0,[r4,#0x18]
        0x00000322:    2001        .       MOVS     r0,#1
        0x00000324:    4305        .C      ORRS     r5,r5,r0
        0x00000326:    07e8        ..      LSLS     r0,r5,#31
        0x00000328:    d001        ..      BEQ      0x32e ; __printf + 190
        0x0000032a:    2010        .       MOVS     r0,#0x10
        0x0000032c:    4385        .C      BICS     r5,r5,r0
        0x0000032e:    2e00        ..      CMP      r6,#0
        0x00000330:    d024        $.      BEQ      0x37c ; __printf + 268
        0x00000332:    4630        0F      MOV      r0,r6
        0x00000334:    3841        A8      SUBS     r0,r0,#0x41
        0x00000336:    2819        .(      CMP      r0,#0x19
        0x00000338:    d803        ..      BHI      0x342 ; __printf + 210
        0x0000033a:    2001        .       MOVS     r0,#1
        0x0000033c:    02c0        ..      LSLS     r0,r0,#11
        0x0000033e:    4305        .C      ORRS     r5,r5,r0
        0x00000340:    3620         6      ADDS     r6,r6,#0x20
        0x00000342:    4620         F      MOV      r0,r4
        0x00000344:    6025        %`      STR      r5,[r4,#0]
        0x00000346:    4631        1F      MOV      r1,r6
        0x00000348:    9a02        ..      LDR      r2,[sp,#8]
        0x0000034a:    4615        .F      MOV      r5,r2
        0x0000034c:    f7fffef6    ....    BL       _printf_percent ; 0x13c
        0x00000350:    2800        .(      CMP      r0,#0
        0x00000352:    d00b        ..      BEQ      0x36c ; __printf + 252
        0x00000354:    2801        .(      CMP      r0,#1
        0x00000356:    d006        ..      BEQ      0x366 ; __printf + 246
        0x00000358:    1ded        ..      ADDS     r5,r5,#7
        0x0000035a:    08e8        ..      LSRS     r0,r5,#3
        0x0000035c:    00c0        ..      LSLS     r0,r0,#3
        0x0000035e:    3008        .0      ADDS     r0,r0,#8
        0x00000360:    9002        ..      STR      r0,[sp,#8]
        0x00000362:    e78a        ..      B        0x27a ; __printf + 10
        0x00000364:    e00a        ..      B        0x37c ; __printf + 268
        0x00000366:    1d2d        -.      ADDS     r5,r5,#4
        0x00000368:    9502        ..      STR      r5,[sp,#8]
        0x0000036a:    e786        ..      B        0x27a ; __printf + 10
        0x0000036c:    6862        bh      LDR      r2,[r4,#4]
        0x0000036e:    4630        0F      MOV      r0,r6
        0x00000370:    68a1        .h      LDR      r1,[r4,#8]
        0x00000372:    4790        .G      BLX      r2
        0x00000374:    6a20         j      LDR      r0,[r4,#0x20]
        0x00000376:    1c40        @.      ADDS     r0,r0,#1
        0x00000378:    6220         b      STR      r0,[r4,#0x20]
        0x0000037a:    e77e        ~.      B        0x27a ; __printf + 10
        0x0000037c:    6a20         j      LDR      r0,[r4,#0x20]
        0x0000037e:    bdfe        ..      POP      {r1-r7,pc}
    .text
    __aeabi_uidiv
    __aeabi_uidivmod
        0x00000380:    2200        ."      MOVS     r2,#0
        0x00000382:    0903        ..      LSRS     r3,r0,#4
        0x00000384:    428b        .B      CMP      r3,r1
        0x00000386:    d32c        ,.      BCC      0x3e2 ; __aeabi_idiv + 78
        0x00000388:    0a03        ..      LSRS     r3,r0,#8
        0x0000038a:    428b        .B      CMP      r3,r1
        0x0000038c:    d311        ..      BCC      0x3b2 ; __aeabi_idiv + 30
        0x0000038e:    2300        .#      MOVS     r3,#0
        0x00000390:    469c        .F      MOV      r12,r3
        0x00000392:    e04e        N.      B        0x432 ; __aeabi_idiv + 158
    __aeabi_idiv
    __aeabi_idivmod
        0x00000394:    4603        .F      MOV      r3,r0
        0x00000396:    430b        .C      ORRS     r3,r3,r1
        0x00000398:    d43c        <.      BMI      0x414 ; __aeabi_idiv + 128
        0x0000039a:    2200        ."      MOVS     r2,#0
        0x0000039c:    0843        C.      LSRS     r3,r0,#1
        0x0000039e:    428b        .B      CMP      r3,r1
        0x000003a0:    d331        1.      BCC      0x406 ; __aeabi_idiv + 114
        0x000003a2:    0903        ..      LSRS     r3,r0,#4
        0x000003a4:    428b        .B      CMP      r3,r1
        0x000003a6:    d31c        ..      BCC      0x3e2 ; __aeabi_idiv + 78
        0x000003a8:    0a03        ..      LSRS     r3,r0,#8
        0x000003aa:    428b        .B      CMP      r3,r1
        0x000003ac:    d301        ..      BCC      0x3b2 ; __aeabi_idiv + 30
        0x000003ae:    4694        .F      MOV      r12,r2
        0x000003b0:    e03f        ?.      B        0x432 ; __aeabi_idiv + 158
        0x000003b2:    09c3        ..      LSRS     r3,r0,#7
        0x000003b4:    428b        .B      CMP      r3,r1
        0x000003b6:    d301        ..      BCC      0x3bc ; __aeabi_idiv + 40
        0x000003b8:    01cb        ..      LSLS     r3,r1,#7
        0x000003ba:    1ac0        ..      SUBS     r0,r0,r3
        0x000003bc:    4152        RA      ADCS     r2,r2,r2
        0x000003be:    0983        ..      LSRS     r3,r0,#6
        0x000003c0:    428b        .B      CMP      r3,r1
        0x000003c2:    d301        ..      BCC      0x3c8 ; __aeabi_idiv + 52
        0x000003c4:    018b        ..      LSLS     r3,r1,#6
        0x000003c6:    1ac0        ..      SUBS     r0,r0,r3
        0x000003c8:    4152        RA      ADCS     r2,r2,r2
        0x000003ca:    0943        C.      LSRS     r3,r0,#5
        0x000003cc:    428b        .B      CMP      r3,r1
        0x000003ce:    d301        ..      BCC      0x3d4 ; __aeabi_idiv + 64
        0x000003d0:    014b        K.      LSLS     r3,r1,#5
        0x000003d2:    1ac0        ..      SUBS     r0,r0,r3
        0x000003d4:    4152        RA      ADCS     r2,r2,r2
        0x000003d6:    0903        ..      LSRS     r3,r0,#4
        0x000003d8:    428b        .B      CMP      r3,r1
        0x000003da:    d301        ..      BCC      0x3e0 ; __aeabi_idiv + 76
        0x000003dc:    010b        ..      LSLS     r3,r1,#4
        0x000003de:    1ac0        ..      SUBS     r0,r0,r3
        0x000003e0:    4152        RA      ADCS     r2,r2,r2
        0x000003e2:    08c3        ..      LSRS     r3,r0,#3
        0x000003e4:    428b        .B      CMP      r3,r1
        0x000003e6:    d301        ..      BCC      0x3ec ; __aeabi_idiv + 88
        0x000003e8:    00cb        ..      LSLS     r3,r1,#3
        0x000003ea:    1ac0        ..      SUBS     r0,r0,r3
        0x000003ec:    4152        RA      ADCS     r2,r2,r2
        0x000003ee:    0883        ..      LSRS     r3,r0,#2
        0x000003f0:    428b        .B      CMP      r3,r1
        0x000003f2:    d301        ..      BCC      0x3f8 ; __aeabi_idiv + 100
        0x000003f4:    008b        ..      LSLS     r3,r1,#2
        0x000003f6:    1ac0        ..      SUBS     r0,r0,r3
        0x000003f8:    4152        RA      ADCS     r2,r2,r2
        0x000003fa:    0843        C.      LSRS     r3,r0,#1
        0x000003fc:    428b        .B      CMP      r3,r1
        0x000003fe:    d301        ..      BCC      0x404 ; __aeabi_idiv + 112
        0x00000400:    004b        K.      LSLS     r3,r1,#1
        0x00000402:    1ac0        ..      SUBS     r0,r0,r3
        0x00000404:    4152        RA      ADCS     r2,r2,r2
        0x00000406:    1a41        A.      SUBS     r1,r0,r1
        0x00000408:    d200        ..      BCS      0x40c ; __aeabi_idiv + 120
        0x0000040a:    4601        .F      MOV      r1,r0
        0x0000040c:    4152        RA      ADCS     r2,r2,r2
        0x0000040e:    4610        .F      MOV      r0,r2
        0x00000410:    4770        pG      BX       lr
        0x00000412:    e05d        ].      B        0x4d0 ; __aeabi_idiv + 316
        0x00000414:    0fca        ..      LSRS     r2,r1,#31
        0x00000416:    d000        ..      BEQ      0x41a ; __aeabi_idiv + 134
        0x00000418:    4249        IB      RSBS     r1,r1,#0
        0x0000041a:    1003        ..      ASRS     r3,r0,#32
        0x0000041c:    d300        ..      BCC      0x420 ; __aeabi_idiv + 140
        0x0000041e:    4240        @B      RSBS     r0,r0,#0
        0x00000420:    4053        S@      EORS     r3,r3,r2
        0x00000422:    2200        ."      MOVS     r2,#0
        0x00000424:    469c        .F      MOV      r12,r3
        0x00000426:    0903        ..      LSRS     r3,r0,#4
        0x00000428:    428b        .B      CMP      r3,r1
        0x0000042a:    d32d        -.      BCC      0x488 ; __aeabi_idiv + 244
        0x0000042c:    0a03        ..      LSRS     r3,r0,#8
        0x0000042e:    428b        .B      CMP      r3,r1
        0x00000430:    d312        ..      BCC      0x458 ; __aeabi_idiv + 196
        0x00000432:    22fc        ."      MOVS     r2,#0xfc
        0x00000434:    0189        ..      LSLS     r1,r1,#6
        0x00000436:    ba12        ..      REV      r2,r2
        0x00000438:    0a03        ..      LSRS     r3,r0,#8
        0x0000043a:    428b        .B      CMP      r3,r1
        0x0000043c:    d30c        ..      BCC      0x458 ; __aeabi_idiv + 196
        0x0000043e:    0189        ..      LSLS     r1,r1,#6
        0x00000440:    1192        ..      ASRS     r2,r2,#6
        0x00000442:    428b        .B      CMP      r3,r1
        0x00000444:    d308        ..      BCC      0x458 ; __aeabi_idiv + 196
        0x00000446:    0189        ..      LSLS     r1,r1,#6
        0x00000448:    1192        ..      ASRS     r2,r2,#6
        0x0000044a:    428b        .B      CMP      r3,r1
        0x0000044c:    d304        ..      BCC      0x458 ; __aeabi_idiv + 196
        0x0000044e:    0189        ..      LSLS     r1,r1,#6
        0x00000450:    d03a        :.      BEQ      0x4c8 ; __aeabi_idiv + 308
        0x00000452:    1192        ..      ASRS     r2,r2,#6
        0x00000454:    e000        ..      B        0x458 ; __aeabi_idiv + 196
        0x00000456:    0989        ..      LSRS     r1,r1,#6
        0x00000458:    09c3        ..      LSRS     r3,r0,#7
        0x0000045a:    428b        .B      CMP      r3,r1
        0x0000045c:    d301        ..      BCC      0x462 ; __aeabi_idiv + 206
        0x0000045e:    01cb        ..      LSLS     r3,r1,#7
        0x00000460:    1ac0        ..      SUBS     r0,r0,r3
        0x00000462:    4152        RA      ADCS     r2,r2,r2
        0x00000464:    0983        ..      LSRS     r3,r0,#6
        0x00000466:    428b        .B      CMP      r3,r1
        0x00000468:    d301        ..      BCC      0x46e ; __aeabi_idiv + 218
        0x0000046a:    018b        ..      LSLS     r3,r1,#6
        0x0000046c:    1ac0        ..      SUBS     r0,r0,r3
        0x0000046e:    4152        RA      ADCS     r2,r2,r2
        0x00000470:    0943        C.      LSRS     r3,r0,#5
        0x00000472:    428b        .B      CMP      r3,r1
        0x00000474:    d301        ..      BCC      0x47a ; __aeabi_idiv + 230
        0x00000476:    014b        K.      LSLS     r3,r1,#5
        0x00000478:    1ac0        ..      SUBS     r0,r0,r3
        0x0000047a:    4152        RA      ADCS     r2,r2,r2
        0x0000047c:    0903        ..      LSRS     r3,r0,#4
        0x0000047e:    428b        .B      CMP      r3,r1
        0x00000480:    d301        ..      BCC      0x486 ; __aeabi_idiv + 242
        0x00000482:    010b        ..      LSLS     r3,r1,#4
        0x00000484:    1ac0        ..      SUBS     r0,r0,r3
        0x00000486:    4152        RA      ADCS     r2,r2,r2
        0x00000488:    08c3        ..      LSRS     r3,r0,#3
        0x0000048a:    428b        .B      CMP      r3,r1
        0x0000048c:    d301        ..      BCC      0x492 ; __aeabi_idiv + 254
        0x0000048e:    00cb        ..      LSLS     r3,r1,#3
        0x00000490:    1ac0        ..      SUBS     r0,r0,r3
        0x00000492:    4152        RA      ADCS     r2,r2,r2
        0x00000494:    0883        ..      LSRS     r3,r0,#2
        0x00000496:    428b        .B      CMP      r3,r1
        0x00000498:    d301        ..      BCC      0x49e ; __aeabi_idiv + 266
        0x0000049a:    008b        ..      LSLS     r3,r1,#2
        0x0000049c:    1ac0        ..      SUBS     r0,r0,r3
        0x0000049e:    4152        RA      ADCS     r2,r2,r2
        0x000004a0:    d2d9        ..      BCS      0x456 ; __aeabi_idiv + 194
        0x000004a2:    0843        C.      LSRS     r3,r0,#1
        0x000004a4:    428b        .B      CMP      r3,r1
        0x000004a6:    d301        ..      BCC      0x4ac ; __aeabi_idiv + 280
        0x000004a8:    004b        K.      LSLS     r3,r1,#1
        0x000004aa:    1ac0        ..      SUBS     r0,r0,r3
        0x000004ac:    4152        RA      ADCS     r2,r2,r2
        0x000004ae:    1a41        A.      SUBS     r1,r0,r1
        0x000004b0:    d200        ..      BCS      0x4b4 ; __aeabi_idiv + 288
        0x000004b2:    4601        .F      MOV      r1,r0
        0x000004b4:    4663        cF      MOV      r3,r12
        0x000004b6:    4152        RA      ADCS     r2,r2,r2
        0x000004b8:    105b        [.      ASRS     r3,r3,#1
        0x000004ba:    4610        .F      MOV      r0,r2
        0x000004bc:    d301        ..      BCC      0x4c2 ; __aeabi_idiv + 302
        0x000004be:    4240        @B      RSBS     r0,r0,#0
        0x000004c0:    2b00        .+      CMP      r3,#0
        0x000004c2:    d500        ..      BPL      0x4c6 ; __aeabi_idiv + 306
        0x000004c4:    4249        IB      RSBS     r1,r1,#0
        0x000004c6:    4770        pG      BX       lr
        0x000004c8:    4663        cF      MOV      r3,r12
        0x000004ca:    105b        [.      ASRS     r3,r3,#1
        0x000004cc:    d300        ..      BCC      0x4d0 ; __aeabi_idiv + 316
        0x000004ce:    4240        @B      RSBS     r0,r0,#0
        0x000004d0:    b501        ..      PUSH     {r0,lr}
        0x000004d2:    2000        .       MOVS     r0,#0
        0x000004d4:    46c0        .F      MOV      r8,r8
        0x000004d6:    46c0        .F      MOV      r8,r8
        0x000004d8:    bd02        ..      POP      {r1,pc}
    .text
    __use_two_region_memory
        0x000004da:    4770        pG      BX       lr
    __rt_heap_escrow$2region
        0x000004dc:    4770        pG      BX       lr
    __rt_heap_expand$2region
        0x000004de:    4770        pG      BX       lr
    .text
    _printf_int_common
        0x000004e0:    b5ff        ..      PUSH     {r0-r7,lr}
        0x000004e2:    4604        .F      MOV      r4,r0
        0x000004e4:    460d        .F      MOV      r5,r1
        0x000004e6:    b081        ..      SUB      sp,sp,#4
        0x000004e8:    3024        $0      ADDS     r0,r0,#0x24
        0x000004ea:    9000        ..      STR      r0,[sp,#0]
        0x000004ec:    6821        !h      LDR      r1,[r4,#0]
        0x000004ee:    0688        ..      LSLS     r0,r1,#26
        0x000004f0:    d504        ..      BPL      0x4fc ; _printf_int_common + 28
        0x000004f2:    2210        ."      MOVS     r2,#0x10
        0x000004f4:    69e0        .i      LDR      r0,[r4,#0x1c]
        0x000004f6:    4391        .C      BICS     r1,r1,r2
        0x000004f8:    6021        !`      STR      r1,[r4,#0]
        0x000004fa:    e000        ..      B        0x4fe ; _printf_int_common + 30
        0x000004fc:    2001        .       MOVS     r0,#1
        0x000004fe:    42a8        .B      CMP      r0,r5
        0x00000500:    dd01        ..      BLE      0x506 ; _printf_int_common + 38
        0x00000502:    1b47        G.      SUBS     r7,r0,r5
        0x00000504:    e000        ..      B        0x508 ; _printf_int_common + 40
        0x00000506:    2700        .'      MOVS     r7,#0
        0x00000508:    9804        ..      LDR      r0,[sp,#0x10]
        0x0000050a:    69a1        .i      LDR      r1,[r4,#0x18]
        0x0000050c:    197a        z.      ADDS     r2,r7,r5
        0x0000050e:    1810        ..      ADDS     r0,r2,r0
        0x00000510:    1a08        ..      SUBS     r0,r1,r0
        0x00000512:    61a0        .a      STR      r0,[r4,#0x18]
        0x00000514:    6820         h      LDR      r0,[r4,#0]
        0x00000516:    06c0        ..      LSLS     r0,r0,#27
        0x00000518:    d402        ..      BMI      0x520 ; _printf_int_common + 64
        0x0000051a:    4620         F      MOV      r0,r4
        0x0000051c:    46c0        .F      MOV      r8,r8
        0x0000051e:    46c0        .F      MOV      r8,r8
        0x00000520:    2600        .&      MOVS     r6,#0
        0x00000522:    e008        ..      B        0x536 ; _printf_int_common + 86
        0x00000524:    9803        ..      LDR      r0,[sp,#0xc]
        0x00000526:    6862        bh      LDR      r2,[r4,#4]
        0x00000528:    68a1        .h      LDR      r1,[r4,#8]
        0x0000052a:    5d80        .]      LDRB     r0,[r0,r6]
        0x0000052c:    4790        .G      BLX      r2
        0x0000052e:    6a20         j      LDR      r0,[r4,#0x20]
        0x00000530:    1c40        @.      ADDS     r0,r0,#1
        0x00000532:    1c76        v.      ADDS     r6,r6,#1
        0x00000534:    6220         b      STR      r0,[r4,#0x20]
        0x00000536:    9804        ..      LDR      r0,[sp,#0x10]
        0x00000538:    4286        .B      CMP      r6,r0
        0x0000053a:    dbf3        ..      BLT      0x524 ; _printf_int_common + 68
        0x0000053c:    6820         h      LDR      r0,[r4,#0]
        0x0000053e:    06c0        ..      LSLS     r0,r0,#27
        0x00000540:    d50a        ..      BPL      0x558 ; _printf_int_common + 120
        0x00000542:    4620         F      MOV      r0,r4
        0x00000544:    46c0        .F      MOV      r8,r8
        0x00000546:    46c0        .F      MOV      r8,r8
        0x00000548:    e006        ..      B        0x558 ; _printf_int_common + 120
        0x0000054a:    6862        bh      LDR      r2,[r4,#4]
        0x0000054c:    68a1        .h      LDR      r1,[r4,#8]
        0x0000054e:    2030        0       MOVS     r0,#0x30
        0x00000550:    4790        .G      BLX      r2
        0x00000552:    6a20         j      LDR      r0,[r4,#0x20]
        0x00000554:    1c40        @.      ADDS     r0,r0,#1
        0x00000556:    6220         b      STR      r0,[r4,#0x20]
        0x00000558:    4638        8F      MOV      r0,r7
        0x0000055a:    1e7f        ..      SUBS     r7,r7,#1
        0x0000055c:    2800        .(      CMP      r0,#0
        0x0000055e:    dcf4        ..      BGT      0x54a ; _printf_int_common + 106
        0x00000560:    e007        ..      B        0x572 ; _printf_int_common + 146
        0x00000562:    9800        ..      LDR      r0,[sp,#0]
        0x00000564:    6862        bh      LDR      r2,[r4,#4]
        0x00000566:    68a1        .h      LDR      r1,[r4,#8]
        0x00000568:    5d40        @]      LDRB     r0,[r0,r5]
        0x0000056a:    4790        .G      BLX      r2
        0x0000056c:    6a20         j      LDR      r0,[r4,#0x20]
        0x0000056e:    1c40        @.      ADDS     r0,r0,#1
        0x00000570:    6220         b      STR      r0,[r4,#0x20]
        0x00000572:    4628        (F      MOV      r0,r5
        0x00000574:    1e6d        m.      SUBS     r5,r5,#1
        0x00000576:    2800        .(      CMP      r0,#0
        0x00000578:    dcf3        ..      BGT      0x562 ; _printf_int_common + 130
        0x0000057a:    4620         F      MOV      r0,r4
        0x0000057c:    46c0        .F      MOV      r8,r8
        0x0000057e:    46c0        .F      MOV      r8,r8
        0x00000580:    6820         h      LDR      r0,[r4,#0]
        0x00000582:    0600        ..      LSLS     r0,r0,#24
        0x00000584:    d502        ..      BPL      0x58c ; _printf_int_common + 172
        0x00000586:    2002        .       MOVS     r0,#2
        0x00000588:    b005        ..      ADD      sp,sp,#0x14
        0x0000058a:    bdf0        ..      POP      {r4-r7,pc}
        0x0000058c:    2001        .       MOVS     r0,#1
        0x0000058e:    e7fb        ..      B        0x588 ; _printf_int_common + 168
    .text
    _printf_input_char
        0x00000590:    6901        .i      LDR      r1,[r0,#0x10]
        0x00000592:    1c4a        J.      ADDS     r2,r1,#1
        0x00000594:    6102        .a      STR      r2,[r0,#0x10]
        0x00000596:    7808        .x      LDRB     r0,[r1,#0]
        0x00000598:    4770        pG      BX       lr
    _printf_char_common
        0x0000059a:    b500        ..      PUSH     {lr}
        0x0000059c:    b08f        ..      SUB      sp,sp,#0x3c
        0x0000059e:    9102        ..      STR      r1,[sp,#8]
        0x000005a0:    2100        .!      MOVS     r1,#0
        0x000005a2:    9105        ..      STR      r1,[sp,#0x14]
        0x000005a4:    4905        .I      LDR      r1,[pc,#20] ; [0x5bc] = 0xffffffe5
        0x000005a6:    9301        ..      STR      r3,[sp,#4]
        0x000005a8:    4479        yD      ADD      r1,r1,pc
        0x000005aa:    9103        ..      STR      r1,[sp,#0xc]
        0x000005ac:    4611        .F      MOV      r1,r2
        0x000005ae:    9004        ..      STR      r0,[sp,#0x10]
        0x000005b0:    4668        hF      MOV      r0,sp
        0x000005b2:    f7fffe5d    ..].    BL       __printf ; 0x270
        0x000005b6:    b00f        ..      ADD      sp,sp,#0x3c
        0x000005b8:    bd00        ..      POP      {pc}
    $d
        0x000005ba:    0000        ..      DCW    0
        0x000005bc:    ffffffe5    ....    DCD    4294967269
    $t
    .text
    _sputc
        0x000005c0:    680a        .h      LDR      r2,[r1,#0]
        0x000005c2:    7010        .p      STRB     r0,[r2,#0]
        0x000005c4:    1c52        R.      ADDS     r2,r2,#1
        0x000005c6:    600a        .`      STR      r2,[r1,#0]
        0x000005c8:    4770        pG      BX       lr
    .text
    __rt_udiv10
        0x000005ca:    4601        .F      MOV      r1,r0
        0x000005cc:    0880        ..      LSRS     r0,r0,#2
        0x000005ce:    1a08        ..      SUBS     r0,r1,r0
        0x000005d0:    0902        ..      LSRS     r2,r0,#4
        0x000005d2:    1810        ..      ADDS     r0,r2,r0
        0x000005d4:    0a02        ..      LSRS     r2,r0,#8
        0x000005d6:    1810        ..      ADDS     r0,r2,r0
        0x000005d8:    0c02        ..      LSRS     r2,r0,#16
        0x000005da:    1810        ..      ADDS     r0,r2,r0
        0x000005dc:    08c0        ..      LSRS     r0,r0,#3
        0x000005de:    0082        ..      LSLS     r2,r0,#2
        0x000005e0:    1812        ..      ADDS     r2,r2,r0
        0x000005e2:    0052        R.      LSLS     r2,r2,#1
        0x000005e4:    1a89        ..      SUBS     r1,r1,r2
        0x000005e6:    e001        ..      B        0x5ec ; __rt_udiv10 + 34
        0x000005e8:    390a        .9      SUBS     r1,r1,#0xa
        0x000005ea:    1c40        @.      ADDS     r0,r0,#1
        0x000005ec:    290a        .)      CMP      r1,#0xa
        0x000005ee:    d2fb        ..      BCS      0x5e8 ; __rt_udiv10 + 30
        0x000005f0:    4770        pG      BX       lr
    .text
    __user_setup_stackheap
        0x000005f2:    4675        uF      MOV      r5,lr
        0x000005f4:    f000f822    ..".    BL       __user_libspace ; 0x63c
        0x000005f8:    46ae        .F      MOV      lr,r5
        0x000005fa:    0005        ..      MOVS     r5,r0
        0x000005fc:    4669        iF      MOV      r1,sp
        0x000005fe:    4653        SF      MOV      r3,r10
        0x00000600:    08c0        ..      LSRS     r0,r0,#3
        0x00000602:    00c0        ..      LSLS     r0,r0,#3
        0x00000604:    4685        .F      MOV      sp,r0
        0x00000606:    b018        ..      ADD      sp,sp,#0x60
        0x00000608:    b520         .      PUSH     {r5,lr}
        0x0000060a:    f7fffdcb    ....    BL       __user_initial_stackheap ; 0x1a4
        0x0000060e:    bc60        `.      POP      {r5,r6}
        0x00000610:    2700        .'      MOVS     r7,#0
        0x00000612:    0849        I.      LSRS     r1,r1,#1
        0x00000614:    46b6        .F      MOV      lr,r6
        0x00000616:    2600        .&      MOVS     r6,#0
        0x00000618:    c5c0        ..      STM      r5!,{r6,r7}
        0x0000061a:    c5c0        ..      STM      r5!,{r6,r7}
        0x0000061c:    c5c0        ..      STM      r5!,{r6,r7}
        0x0000061e:    c5c0        ..      STM      r5!,{r6,r7}
        0x00000620:    c5c0        ..      STM      r5!,{r6,r7}
        0x00000622:    c5c0        ..      STM      r5!,{r6,r7}
        0x00000624:    c5c0        ..      STM      r5!,{r6,r7}
        0x00000626:    c5c0        ..      STM      r5!,{r6,r7}
        0x00000628:    3d40        @=      SUBS     r5,r5,#0x40
        0x0000062a:    0049        I.      LSLS     r1,r1,#1
        0x0000062c:    468d        .F      MOV      sp,r1
        0x0000062e:    4770        pG      BX       lr
    .text
    exit
        0x00000630:    4604        .F      MOV      r4,r0
        0x00000632:    46c0        .F      MOV      r8,r8
        0x00000634:    46c0        .F      MOV      r8,r8
        0x00000636:    4620         F      MOV      r0,r4
        0x00000638:    f7fffd97    ....    BL       __rt_exit ; 0x16a
    .text
    __user_libspace
    __user_perproc_libspace
    __user_perthread_libspace
        0x0000063c:    4800        .H      LDR      r0,[pc,#0] ; [0x640] = 0x20000690
        0x0000063e:    4770        pG      BX       lr
    $d
        0x00000640:    20000690    ...     DCD    536872592
    $t
    .text
    _sys_exit
        0x00000644:    4901        .I      LDR      r1,[pc,#4] ; [0x64c] = 0x20026
        0x00000646:    2018        .       MOVS     r0,#0x18
        0x00000648:    beab        ..      BKPT     #0xab
        0x0000064a:    e7fe        ..      B        0x64a ; _sys_exit + 6
    $d
        0x0000064c:    00020026    &...    DCD    131110
    $t
    .text
    __I$use$semihosting
    __use_no_semihosting_swi
        0x00000650:    4770        pG      BX       lr
    .text
    __semihosting_library_function
        0x00000652:    0000        ..      MOVS     r0,r0
    i.BOD_IRQHandler
    BOD_IRQHandler
        0x00000654:    b510        ..      PUSH     {r4,lr}
        0x00000656:    2005        .       MOVS     r0,#5
        0x00000658:    0700        ..      LSLS     r0,r0,#28
        0x0000065a:    6980        .i      LDR      r0,[r0,#0x18]
        0x0000065c:    2110        .!      MOVS     r1,#0x10
        0x0000065e:    4388        .C      BICS     r0,r0,r1
        0x00000660:    3010        .0      ADDS     r0,r0,#0x10
        0x00000662:    2105        .!      MOVS     r1,#5
        0x00000664:    0709        ..      LSLS     r1,r1,#28
        0x00000666:    6188        .a      STR      r0,[r1,#0x18]
        0x00000668:    4803        .H      LDR      r0,[pc,#12] ; [0x678] = 0x2000061c
        0x0000066a:    6800        .h      LDR      r0,[r0,#0]
        0x0000066c:    2800        .(      CMP      r0,#0
        0x0000066e:    d002        ..      BEQ      0x676 ; BOD_IRQHandler + 34
        0x00000670:    4801        .H      LDR      r0,[pc,#4] ; [0x678] = 0x2000061c
        0x00000672:    6800        .h      LDR      r0,[r0,#0]
        0x00000674:    4780        .G      BLX      r0
        0x00000676:    bd10        ..      POP      {r4,pc}
    $d
        0x00000678:    2000061c    ...     DCD    536872476
    $t
    i.DrvGPIO_ClrBit
    DrvGPIO_ClrBit
        0x0000067c:    b510        ..      PUSH     {r4,lr}
        0x0000067e:    4603        .F      MOV      r3,r0
        0x00000680:    2900        .)      CMP      r1,#0
        0x00000682:    db01        ..      BLT      0x688 ; DrvGPIO_ClrBit + 12
        0x00000684:    2910        .)      CMP      r1,#0x10
        0x00000686:    dd01        ..      BLE      0x68c ; DrvGPIO_ClrBit + 16
        0x00000688:    4805        .H      LDR      r0,[pc,#20] ; [0x6a0] = 0xffff8901
        0x0000068a:    bd10        ..      POP      {r4,pc}
        0x0000068c:    0198        ..      LSLS     r0,r3,#6
        0x0000068e:    4c05        .L      LDR      r4,[pc,#20] ; [0x6a4] = 0x50004000
        0x00000690:    1902        ..      ADDS     r2,r0,r4
        0x00000692:    6890        .h      LDR      r0,[r2,#8]
        0x00000694:    2401        .$      MOVS     r4,#1
        0x00000696:    408c        .@      LSLS     r4,r4,r1
        0x00000698:    43a0        .C      BICS     r0,r0,r4
        0x0000069a:    6090        .`      STR      r0,[r2,#8]
        0x0000069c:    2000        .       MOVS     r0,#0
        0x0000069e:    e7f4        ..      B        0x68a ; DrvGPIO_ClrBit + 14
    $d
        0x000006a0:    ffff8901    ....    DCD    4294936833
        0x000006a4:    50004000    .@.P    DCD    1342193664
    $t
    i.DrvGPIO_Open
    DrvGPIO_Open
        0x000006a8:    b570        p.      PUSH     {r4-r6,lr}
        0x000006aa:    4604        .F      MOV      r4,r0
        0x000006ac:    460b        .F      MOV      r3,r1
        0x000006ae:    2b00        .+      CMP      r3,#0
        0x000006b0:    db01        ..      BLT      0x6b6 ; DrvGPIO_Open + 14
        0x000006b2:    2b10        .+      CMP      r3,#0x10
        0x000006b4:    dd01        ..      BLE      0x6ba ; DrvGPIO_Open + 18
        0x000006b6:    4818        .H      LDR      r0,[pc,#96] ; [0x718] = 0xffff8901
        0x000006b8:    bd70        p.      POP      {r4-r6,pc}
        0x000006ba:    01a0        ..      LSLS     r0,r4,#6
        0x000006bc:    4d17        .M      LDR      r5,[pc,#92] ; [0x71c] = 0x50004000
        0x000006be:    1941        A.      ADDS     r1,r0,r5
        0x000006c0:    2a00        .*      CMP      r2,#0
        0x000006c2:    d003        ..      BEQ      0x6cc ; DrvGPIO_Open + 36
        0x000006c4:    2a01        .*      CMP      r2,#1
        0x000006c6:    d001        ..      BEQ      0x6cc ; DrvGPIO_Open + 36
        0x000006c8:    2a02        .*      CMP      r2,#2
        0x000006ca:    d117        ..      BNE      0x6fc ; DrvGPIO_Open + 84
        0x000006cc:    6808        .h      LDR      r0,[r1,#0]
        0x000006ce:    005e        ^.      LSLS     r6,r3,#1
        0x000006d0:    2503        .%      MOVS     r5,#3
        0x000006d2:    40b5        .@      LSLS     r5,r5,r6
        0x000006d4:    43a8        .C      BICS     r0,r0,r5
        0x000006d6:    6008        .`      STR      r0,[r1,#0]
        0x000006d8:    2a01        .*      CMP      r2,#1
        0x000006da:    d106        ..      BNE      0x6ea ; DrvGPIO_Open + 66
        0x000006dc:    6808        .h      LDR      r0,[r1,#0]
        0x000006de:    005e        ^.      LSLS     r6,r3,#1
        0x000006e0:    2501        .%      MOVS     r5,#1
        0x000006e2:    40b5        .@      LSLS     r5,r5,r6
        0x000006e4:    4328        (C      ORRS     r0,r0,r5
        0x000006e6:    6008        .`      STR      r0,[r1,#0]
        0x000006e8:    e013        ..      B        0x712 ; DrvGPIO_Open + 106
        0x000006ea:    2a02        .*      CMP      r2,#2
        0x000006ec:    d111        ..      BNE      0x712 ; DrvGPIO_Open + 106
        0x000006ee:    6808        .h      LDR      r0,[r1,#0]
        0x000006f0:    005e        ^.      LSLS     r6,r3,#1
        0x000006f2:    2502        .%      MOVS     r5,#2
        0x000006f4:    40b5        .@      LSLS     r5,r5,r6
        0x000006f6:    4328        (C      ORRS     r0,r0,r5
        0x000006f8:    6008        .`      STR      r0,[r1,#0]
        0x000006fa:    e00a        ..      B        0x712 ; DrvGPIO_Open + 106
        0x000006fc:    2a03        .*      CMP      r2,#3
        0x000006fe:    d106        ..      BNE      0x70e ; DrvGPIO_Open + 102
        0x00000700:    6808        .h      LDR      r0,[r1,#0]
        0x00000702:    005e        ^.      LSLS     r6,r3,#1
        0x00000704:    2503        .%      MOVS     r5,#3
        0x00000706:    40b5        .@      LSLS     r5,r5,r6
        0x00000708:    4328        (C      ORRS     r0,r0,r5
        0x0000070a:    6008        .`      STR      r0,[r1,#0]
        0x0000070c:    e001        ..      B        0x712 ; DrvGPIO_Open + 106
        0x0000070e:    4802        .H      LDR      r0,[pc,#8] ; [0x718] = 0xffff8901
        0x00000710:    e7d2        ..      B        0x6b8 ; DrvGPIO_Open + 16
        0x00000712:    2000        .       MOVS     r0,#0
        0x00000714:    e7d0        ..      B        0x6b8 ; DrvGPIO_Open + 16
    $d
        0x00000716:    0000        ..      DCW    0
        0x00000718:    ffff8901    ....    DCD    4294936833
        0x0000071c:    50004000    .@.P    DCD    1342193664
    $t
    i.DrvGPIO_SetBit
    DrvGPIO_SetBit
        0x00000720:    b510        ..      PUSH     {r4,lr}
        0x00000722:    4603        .F      MOV      r3,r0
        0x00000724:    2900        .)      CMP      r1,#0
        0x00000726:    db01        ..      BLT      0x72c ; DrvGPIO_SetBit + 12
        0x00000728:    2910        .)      CMP      r1,#0x10
        0x0000072a:    dd01        ..      BLE      0x730 ; DrvGPIO_SetBit + 16
        0x0000072c:    4805        .H      LDR      r0,[pc,#20] ; [0x744] = 0xffff8901
        0x0000072e:    bd10        ..      POP      {r4,pc}
        0x00000730:    0198        ..      LSLS     r0,r3,#6
        0x00000732:    4c05        .L      LDR      r4,[pc,#20] ; [0x748] = 0x50004000
        0x00000734:    1902        ..      ADDS     r2,r0,r4
        0x00000736:    6890        .h      LDR      r0,[r2,#8]
        0x00000738:    2401        .$      MOVS     r4,#1
        0x0000073a:    408c        .@      LSLS     r4,r4,r1
        0x0000073c:    4320         C      ORRS     r0,r0,r4
        0x0000073e:    6090        .`      STR      r0,[r2,#8]
        0x00000740:    2000        .       MOVS     r0,#0
        0x00000742:    e7f4        ..      B        0x72e ; DrvGPIO_SetBit + 14
    $d
        0x00000744:    ffff8901    ....    DCD    4294936833
        0x00000748:    50004000    .@.P    DCD    1342193664
    $t
    i.DrvSYS_Delay
    DrvSYS_Delay
        0x0000074c:    4908        .I      LDR      r1,[pc,#32] ; [0x770] = 0x20000004
        0x0000074e:    6809        .h      LDR      r1,[r1,#0]
        0x00000750:    4341        AC      MULS     r1,r0,r1
        0x00000752:    4a08        .J      LDR      r2,[pc,#32] ; [0x774] = 0xe000e000
        0x00000754:    6151        Qa      STR      r1,[r2,#0x14]
        0x00000756:    2100        .!      MOVS     r1,#0
        0x00000758:    6191        .a      STR      r1,[r2,#0x18]
        0x0000075a:    2105        .!      MOVS     r1,#5
        0x0000075c:    6111        .a      STR      r1,[r2,#0x10]
        0x0000075e:    bf00        ..      NOP      
        0x00000760:    4904        .I      LDR      r1,[pc,#16] ; [0x774] = 0xe000e000
        0x00000762:    6909        .i      LDR      r1,[r1,#0x10]
        0x00000764:    2201        ."      MOVS     r2,#1
        0x00000766:    0412        ..      LSLS     r2,r2,#16
        0x00000768:    4211        .B      TST      r1,r2
        0x0000076a:    d0f9        ..      BEQ      0x760 ; DrvSYS_Delay + 20
        0x0000076c:    4770        pG      BX       lr
    $d
        0x0000076e:    0000        ..      DCW    0
        0x00000770:    20000004    ...     DCD    536870916
        0x00000774:    e000e000    ....    DCD    3758153728
    $t
    i.DrvSYS_GetPLLContent
    DrvSYS_GetPLLContent
        0x00000778:    b5f3        ..      PUSH     {r0,r1,r4-r7,lr}
        0x0000077a:    b083        ..      SUB      sp,sp,#0xc
        0x0000077c:    460c        .F      MOV      r4,r1
        0x0000077e:    4827        'H      LDR      r0,[pc,#156] ; [0x81c] = 0xb71b00
        0x00000780:    9002        ..      STR      r0,[sp,#8]
        0x00000782:    2000        .       MOVS     r0,#0
        0x00000784:    9001        ..      STR      r0,[sp,#4]
        0x00000786:    4826        &H      LDR      r0,[pc,#152] ; [0x820] = 0xbebc200
        0x00000788:    4284        .B      CMP      r4,r0
        0x0000078a:    d804        ..      BHI      0x796 ; DrvSYS_GetPLLContent + 30
        0x0000078c:    1040        @.      ASRS     r0,r0,#1
        0x0000078e:    4284        .B      CMP      r4,r0
        0x00000790:    d901        ..      BLS      0x796 ; DrvSYS_GetPLLContent + 30
        0x00000792:    2700        .'      MOVS     r7,#0
        0x00000794:    e014        ..      B        0x7c0 ; DrvSYS_GetPLLContent + 72
        0x00000796:    4823        #H      LDR      r0,[pc,#140] ; [0x824] = 0x5f5e100
        0x00000798:    4284        .B      CMP      r4,r0
        0x0000079a:    d805        ..      BHI      0x7a8 ; DrvSYS_GetPLLContent + 48
        0x0000079c:    1040        @.      ASRS     r0,r0,#1
        0x0000079e:    4284        .B      CMP      r4,r0
        0x000007a0:    d902        ..      BLS      0x7a8 ; DrvSYS_GetPLLContent + 48
        0x000007a2:    2701        .'      MOVS     r7,#1
        0x000007a4:    0064        d.      LSLS     r4,r4,#1
        0x000007a6:    e00b        ..      B        0x7c0 ; DrvSYS_GetPLLContent + 72
        0x000007a8:    481f        .H      LDR      r0,[pc,#124] ; [0x828] = 0x2faf080
        0x000007aa:    4284        .B      CMP      r4,r0
        0x000007ac:    d805        ..      BHI      0x7ba ; DrvSYS_GetPLLContent + 66
        0x000007ae:    1040        @.      ASRS     r0,r0,#1
        0x000007b0:    4284        .B      CMP      r4,r0
        0x000007b2:    d302        ..      BCC      0x7ba ; DrvSYS_GetPLLContent + 66
        0x000007b4:    2703        .'      MOVS     r7,#3
        0x000007b6:    00a4        ..      LSLS     r4,r4,#2
        0x000007b8:    e002        ..      B        0x7c0 ; DrvSYS_GetPLLContent + 72
        0x000007ba:    481c        .H      LDR      r0,[pc,#112] ; [0x82c] = 0xc22e
        0x000007bc:    b005        ..      ADD      sp,sp,#0x14
        0x000007be:    bdf0        ..      POP      {r4-r7,pc}
        0x000007c0:    9803        ..      LDR      r0,[sp,#0xc]
        0x000007c2:    2800        .(      CMP      r0,#0
        0x000007c4:    d102        ..      BNE      0x7cc ; DrvSYS_GetPLLContent + 84
        0x000007c6:    4815        .H      LDR      r0,[pc,#84] ; [0x81c] = 0xb71b00
        0x000007c8:    9002        ..      STR      r0,[sp,#8]
        0x000007ca:    e004        ..      B        0x7d6 ; DrvSYS_GetPLLContent + 94
        0x000007cc:    9803        ..      LDR      r0,[sp,#0xc]
        0x000007ce:    2801        .(      CMP      r0,#1
        0x000007d0:    d101        ..      BNE      0x7d6 ; DrvSYS_GetPLLContent + 94
        0x000007d2:    4817        .H      LDR      r0,[pc,#92] ; [0x830] = 0x1518000
        0x000007d4:    9002        ..      STR      r0,[sp,#8]
        0x000007d6:    4917        .I      LDR      r1,[pc,#92] ; [0x834] = 0xf4240
        0x000007d8:    4620         F      MOV      r0,r4
        0x000007da:    f7fffdd1    ....    BL       __aeabi_uidiv ; 0x380
        0x000007de:    4606        .F      MOV      r6,r0
        0x000007e0:    4914        .I      LDR      r1,[pc,#80] ; [0x834] = 0xf4240
        0x000007e2:    9802        ..      LDR      r0,[sp,#8]
        0x000007e4:    f7fffdcc    ....    BL       __aeabi_uidiv ; 0x380
        0x000007e8:    4605        .F      MOV      r5,r0
        0x000007ea:    e00c        ..      B        0x806 ; DrvSYS_GetPLLContent + 142
        0x000007ec:    07e8        ..      LSLS     r0,r5,#31
        0x000007ee:    0fc0        ..      LSRS     r0,r0,#31
        0x000007f0:    d106        ..      BNE      0x800 ; DrvSYS_GetPLLContent + 136
        0x000007f2:    07f0        ..      LSLS     r0,r6,#31
        0x000007f4:    0fc0        ..      LSRS     r0,r0,#31
        0x000007f6:    d103        ..      BNE      0x800 ; DrvSYS_GetPLLContent + 136
        0x000007f8:    2d02        .-      CMP      r5,#2
        0x000007fa:    d001        ..      BEQ      0x800 ; DrvSYS_GetPLLContent + 136
        0x000007fc:    2e02        ..      CMP      r6,#2
        0x000007fe:    d100        ..      BNE      0x802 ; DrvSYS_GetPLLContent + 138
        0x00000800:    e002        ..      B        0x808 ; DrvSYS_GetPLLContent + 144
        0x00000802:    086d        m.      LSRS     r5,r5,#1
        0x00000804:    0876        v.      LSRS     r6,r6,#1
        0x00000806:    e7f1        ..      B        0x7ec ; DrvSYS_GetPLLContent + 116
        0x00000808:    bf00        ..      NOP      
        0x0000080a:    03b8        ..      LSLS     r0,r7,#14
        0x0000080c:    1ea9        ..      SUBS     r1,r5,#2
        0x0000080e:    0249        I.      LSLS     r1,r1,#9
        0x00000810:    4308        .C      ORRS     r0,r0,r1
        0x00000812:    1eb1        ..      SUBS     r1,r6,#2
        0x00000814:    4308        .C      ORRS     r0,r0,r1
        0x00000816:    9001        ..      STR      r0,[sp,#4]
        0x00000818:    9801        ..      LDR      r0,[sp,#4]
        0x0000081a:    e7cf        ..      B        0x7bc ; DrvSYS_GetPLLContent + 68
    $d
        0x0000081c:    00b71b00    ....    DCD    12000000
        0x00000820:    0bebc200    ....    DCD    200000000
        0x00000824:    05f5e100    ....    DCD    100000000
        0x00000828:    02faf080    ....    DCD    50000000
        0x0000082c:    0000c22e    ....    DCD    49710
        0x00000830:    01518000    ..Q.    DCD    22118400
        0x00000834:    000f4240    @B..    DCD    1000000
    $t
    i.DrvSYS_IsProtectedRegLocked
    DrvSYS_IsProtectedRegLocked
        0x00000838:    4802        .H      LDR      r0,[pc,#8] ; [0x844] = 0x50000100
        0x0000083a:    6800        .h      LDR      r0,[r0,#0]
        0x0000083c:    07c0        ..      LSLS     r0,r0,#31
        0x0000083e:    0fc0        ..      LSRS     r0,r0,#31
        0x00000840:    4770        pG      BX       lr
    $d
        0x00000842:    0000        ..      DCW    0
        0x00000844:    50000100    ...P    DCD    1342177536
    $t
    i.DrvSYS_Open
    DrvSYS_Open
        0x00000848:    b5f8        ..      PUSH     {r3-r7,lr}
        0x0000084a:    4605        .F      MOV      r5,r0
        0x0000084c:    2600        .&      MOVS     r6,#0
        0x0000084e:    4825        %H      LDR      r0,[pc,#148] ; [0x8e4] = 0x2faf080
        0x00000850:    4285        .B      CMP      r5,r0
        0x00000852:    d802        ..      BHI      0x85a ; DrvSYS_Open + 18
        0x00000854:    1040        @.      ASRS     r0,r0,#1
        0x00000856:    4285        .B      CMP      r5,r0
        0x00000858:    d201        ..      BCS      0x85e ; DrvSYS_Open + 22
        0x0000085a:    4823        #H      LDR      r0,[pc,#140] ; [0x8e8] = 0xffff9606
        0x0000085c:    bdf8        ..      POP      {r3-r7,pc}
        0x0000085e:    f7ffffeb    ....    BL       DrvSYS_IsProtectedRegLocked ; 0x838
        0x00000862:    2800        .(      CMP      r0,#0
        0x00000864:    d102        ..      BNE      0x86c ; DrvSYS_Open + 36
        0x00000866:    4820         H      LDR      r0,[pc,#128] ; [0x8e8] = 0xffff9606
        0x00000868:    1c40        @.      ADDS     r0,r0,#1
        0x0000086a:    e7f7        ..      B        0x85c ; DrvSYS_Open + 20
        0x0000086c:    481f        .H      LDR      r0,[pc,#124] ; [0x8ec] = 0x50000200
        0x0000086e:    6a00        .j      LDR      r0,[r0,#0x20]
        0x00000870:    0300        ..      LSLS     r0,r0,#12
        0x00000872:    0fc0        ..      LSRS     r0,r0,#31
        0x00000874:    d108        ..      BNE      0x888 ; DrvSYS_Open + 64
        0x00000876:    481d        .H      LDR      r0,[pc,#116] ; [0x8ec] = 0x50000200
        0x00000878:    6800        .h      LDR      r0,[r0,#0]
        0x0000087a:    0840        @.      LSRS     r0,r0,#1
        0x0000087c:    0040        @.      LSLS     r0,r0,#1
        0x0000087e:    1c40        @.      ADDS     r0,r0,#1
        0x00000880:    491a        .I      LDR      r1,[pc,#104] ; [0x8ec] = 0x50000200
        0x00000882:    6008        .`      STR      r0,[r1,#0]
        0x00000884:    2600        .&      MOVS     r6,#0
        0x00000886:    e007        ..      B        0x898 ; DrvSYS_Open + 80
        0x00000888:    4818        .H      LDR      r0,[pc,#96] ; [0x8ec] = 0x50000200
        0x0000088a:    6800        .h      LDR      r0,[r0,#0]
        0x0000088c:    2104        .!      MOVS     r1,#4
        0x0000088e:    4388        .C      BICS     r0,r0,r1
        0x00000890:    1d00        ..      ADDS     r0,r0,#4
        0x00000892:    4916        .I      LDR      r1,[pc,#88] ; [0x8ec] = 0x50000200
        0x00000894:    6008        .`      STR      r0,[r1,#0]
        0x00000896:    2601        .&      MOVS     r6,#1
        0x00000898:    4629        )F      MOV      r1,r5
        0x0000089a:    4630        0F      MOV      r0,r6
        0x0000089c:    f7ffff6c    ..l.    BL       DrvSYS_GetPLLContent ; 0x778
        0x000008a0:    4607        .F      MOV      r7,r0
        0x000008a2:    2400        .$      MOVS     r4,#0
        0x000008a4:    e000        ..      B        0x8a8 ; DrvSYS_Open + 96
        0x000008a6:    1c64        d.      ADDS     r4,r4,#1
        0x000008a8:    4811        .H      LDR      r0,[pc,#68] ; [0x8f0] = 0x2710
        0x000008aa:    4284        .B      CMP      r4,r0
        0x000008ac:    d3fb        ..      BCC      0x8a6 ; DrvSYS_Open + 94
        0x000008ae:    4638        8F      MOV      r0,r7
        0x000008b0:    f000f83c    ..<.    BL       DrvSYS_SetPLLContent ; 0x92c
        0x000008b4:    480d        .H      LDR      r0,[pc,#52] ; [0x8ec] = 0x50000200
        0x000008b6:    6a00        .j      LDR      r0,[r0,#0x20]
        0x000008b8:    2101        .!      MOVS     r1,#1
        0x000008ba:    0489        ..      LSLS     r1,r1,#18
        0x000008bc:    4388        .C      BICS     r0,r0,r1
        0x000008be:    490b        .I      LDR      r1,[pc,#44] ; [0x8ec] = 0x50000200
        0x000008c0:    6208        .b      STR      r0,[r1,#0x20]
        0x000008c2:    4608        .F      MOV      r0,r1
        0x000008c4:    6a00        .j      LDR      r0,[r0,#0x20]
        0x000008c6:    01c9        ..      LSLS     r1,r1,#7
        0x000008c8:    4388        .C      BICS     r0,r0,r1
        0x000008ca:    4908        .I      LDR      r1,[pc,#32] ; [0x8ec] = 0x50000200
        0x000008cc:    6208        .b      STR      r0,[r1,#0x20]
        0x000008ce:    2400        .$      MOVS     r4,#0
        0x000008d0:    e000        ..      B        0x8d4 ; DrvSYS_Open + 140
        0x000008d2:    1c64        d.      ADDS     r4,r4,#1
        0x000008d4:    4806        .H      LDR      r0,[pc,#24] ; [0x8f0] = 0x2710
        0x000008d6:    4284        .B      CMP      r4,r0
        0x000008d8:    d3fb        ..      BCC      0x8d2 ; DrvSYS_Open + 138
        0x000008da:    2002        .       MOVS     r0,#2
        0x000008dc:    f000f80a    ....    BL       DrvSYS_SelectHCLKSource ; 0x8f4
        0x000008e0:    2000        .       MOVS     r0,#0
        0x000008e2:    e7bb        ..      B        0x85c ; DrvSYS_Open + 20
    $d
        0x000008e4:    02faf080    ....    DCD    50000000
        0x000008e8:    ffff9606    ....    DCD    4294940166
        0x000008ec:    50000200    ...P    DCD    1342177792
        0x000008f0:    00002710    .'..    DCD    10000
    $t
    i.DrvSYS_SelectHCLKSource
    DrvSYS_SelectHCLKSource
        0x000008f4:    b510        ..      PUSH     {r4,lr}
        0x000008f6:    4604        .F      MOV      r4,r0
        0x000008f8:    2c07        .,      CMP      r4,#7
        0x000008fa:    dc03        ..      BGT      0x904 ; DrvSYS_SelectHCLKSource + 16
        0x000008fc:    2c03        .,      CMP      r4,#3
        0x000008fe:    dd03        ..      BLE      0x908 ; DrvSYS_SelectHCLKSource + 20
        0x00000900:    2c07        .,      CMP      r4,#7
        0x00000902:    da01        ..      BGE      0x908 ; DrvSYS_SelectHCLKSource + 20
        0x00000904:    4807        .H      LDR      r0,[pc,#28] ; [0x924] = 0xffff9603
        0x00000906:    bd10        ..      POP      {r4,pc}
        0x00000908:    4807        .H      LDR      r0,[pc,#28] ; [0x928] = 0x50000200
        0x0000090a:    6900        .i      LDR      r0,[r0,#0x10]
        0x0000090c:    08c0        ..      LSRS     r0,r0,#3
        0x0000090e:    00c0        ..      LSLS     r0,r0,#3
        0x00000910:    0761        a.      LSLS     r1,r4,#29
        0x00000912:    0f49        I.      LSRS     r1,r1,#29
        0x00000914:    4308        .C      ORRS     r0,r0,r1
        0x00000916:    4904        .I      LDR      r1,[pc,#16] ; [0x928] = 0x50000200
        0x00000918:    6108        .a      STR      r0,[r1,#0x10]
        0x0000091a:    f000fb2d    ..-.    BL       SystemCoreClockUpdate ; 0xf78
        0x0000091e:    2000        .       MOVS     r0,#0
        0x00000920:    e7f1        ..      B        0x906 ; DrvSYS_SelectHCLKSource + 18
    $d
        0x00000922:    0000        ..      DCW    0
        0x00000924:    ffff9603    ....    DCD    4294940163
        0x00000928:    50000200    ...P    DCD    1342177792
    $t
    i.DrvSYS_SetPLLContent
    DrvSYS_SetPLLContent
        0x0000092c:    4911        .I      LDR      r1,[pc,#68] ; [0x974] = 0x50000200
        0x0000092e:    6a09        .j      LDR      r1,[r1,#0x20]
        0x00000930:    0a49        I.      LSRS     r1,r1,#9
        0x00000932:    0249        I.      LSLS     r1,r1,#9
        0x00000934:    05c2        ..      LSLS     r2,r0,#23
        0x00000936:    0dd2        ..      LSRS     r2,r2,#23
        0x00000938:    4311        .C      ORRS     r1,r1,r2
        0x0000093a:    4a0e        .J      LDR      r2,[pc,#56] ; [0x974] = 0x50000200
        0x0000093c:    6211        .b      STR      r1,[r2,#0x20]
        0x0000093e:    4611        .F      MOV      r1,r2
        0x00000940:    6a09        .j      LDR      r1,[r1,#0x20]
        0x00000942:    221f        ."      MOVS     r2,#0x1f
        0x00000944:    0252        R.      LSLS     r2,r2,#9
        0x00000946:    4391        .C      BICS     r1,r1,r2
        0x00000948:    0a42        B.      LSRS     r2,r0,#9
        0x0000094a:    0252        R.      LSLS     r2,r2,#9
        0x0000094c:    231f        .#      MOVS     r3,#0x1f
        0x0000094e:    025b        [.      LSLS     r3,r3,#9
        0x00000950:    401a        .@      ANDS     r2,r2,r3
        0x00000952:    4311        .C      ORRS     r1,r1,r2
        0x00000954:    4a07        .J      LDR      r2,[pc,#28] ; [0x974] = 0x50000200
        0x00000956:    6211        .b      STR      r1,[r2,#0x20]
        0x00000958:    4611        .F      MOV      r1,r2
        0x0000095a:    6a09        .j      LDR      r1,[r1,#0x20]
        0x0000095c:    2203        ."      MOVS     r2,#3
        0x0000095e:    0392        ..      LSLS     r2,r2,#14
        0x00000960:    4391        .C      BICS     r1,r1,r2
        0x00000962:    0b82        ..      LSRS     r2,r0,#14
        0x00000964:    0392        ..      LSLS     r2,r2,#14
        0x00000966:    2303        .#      MOVS     r3,#3
        0x00000968:    039b        ..      LSLS     r3,r3,#14
        0x0000096a:    401a        .@      ANDS     r2,r2,r3
        0x0000096c:    4311        .C      ORRS     r1,r1,r2
        0x0000096e:    4a01        .J      LDR      r2,[pc,#4] ; [0x974] = 0x50000200
        0x00000970:    6211        .b      STR      r1,[r2,#0x20]
        0x00000972:    4770        pG      BX       lr
    $d
        0x00000974:    50000200    ...P    DCD    1342177792
    $t
    i.EINT0_IRQHandler
    EINT0_IRQHandler
        0x00000978:    b510        ..      PUSH     {r4,lr}
        0x0000097a:    2001        .       MOVS     r0,#1
        0x0000097c:    0380        ..      LSLS     r0,r0,#14
        0x0000097e:    4905        .I      LDR      r1,[pc,#20] ; [0x994] = 0x50004040
        0x00000980:    6208        .b      STR      r0,[r1,#0x20]
        0x00000982:    4805        .H      LDR      r0,[pc,#20] ; [0x998] = 0x20000638
        0x00000984:    6800        .h      LDR      r0,[r0,#0]
        0x00000986:    2800        .(      CMP      r0,#0
        0x00000988:    d002        ..      BEQ      0x990 ; EINT0_IRQHandler + 24
        0x0000098a:    4803        .H      LDR      r0,[pc,#12] ; [0x998] = 0x20000638
        0x0000098c:    6800        .h      LDR      r0,[r0,#0]
        0x0000098e:    4780        .G      BLX      r0
        0x00000990:    bd10        ..      POP      {r4,pc}
    $d
        0x00000992:    0000        ..      DCW    0
        0x00000994:    50004040    @@.P    DCD    1342193728
        0x00000998:    20000638    8..     DCD    536872504
    $t
    i.EINT1_IRQHandler
    EINT1_IRQHandler
        0x0000099c:    b510        ..      PUSH     {r4,lr}
        0x0000099e:    2001        .       MOVS     r0,#1
        0x000009a0:    03c0        ..      LSLS     r0,r0,#15
        0x000009a2:    4905        .I      LDR      r1,[pc,#20] ; [0x9b8] = 0x50004040
        0x000009a4:    6208        .b      STR      r0,[r1,#0x20]
        0x000009a6:    4805        .H      LDR      r0,[pc,#20] ; [0x9bc] = 0x2000063c
        0x000009a8:    6800        .h      LDR      r0,[r0,#0]
        0x000009aa:    2800        .(      CMP      r0,#0
        0x000009ac:    d002        ..      BEQ      0x9b4 ; EINT1_IRQHandler + 24
        0x000009ae:    4803        .H      LDR      r0,[pc,#12] ; [0x9bc] = 0x2000063c
        0x000009b0:    6800        .h      LDR      r0,[r0,#0]
        0x000009b2:    4780        .G      BLX      r0
        0x000009b4:    bd10        ..      POP      {r4,pc}
    $d
        0x000009b6:    0000        ..      DCW    0
        0x000009b8:    50004040    @@.P    DCD    1342193728
        0x000009bc:    2000063c    <..     DCD    536872508
    $t
    i.GPAB_IRQHandler
    GPAB_IRQHandler
        0x000009c0:    b570        p.      PUSH     {r4-r6,lr}
        0x000009c2:    480c        .H      LDR      r0,[pc,#48] ; [0x9f4] = 0x50004000
        0x000009c4:    6a05        .j      LDR      r5,[r0,#0x20]
        0x000009c6:    480b        .H      LDR      r0,[pc,#44] ; [0x9f4] = 0x50004000
        0x000009c8:    3040        @0      ADDS     r0,r0,#0x40
        0x000009ca:    6a04        .j      LDR      r4,[r0,#0x20]
        0x000009cc:    2103        .!      MOVS     r1,#3
        0x000009ce:    0389        ..      LSLS     r1,r1,#14
        0x000009d0:    4620         F      MOV      r0,r4
        0x000009d2:    4388        .C      BICS     r0,r0,r1
        0x000009d4:    4604        .F      MOV      r4,r0
        0x000009d6:    4807        .H      LDR      r0,[pc,#28] ; [0x9f4] = 0x50004000
        0x000009d8:    6205        .b      STR      r5,[r0,#0x20]
        0x000009da:    4806        .H      LDR      r0,[pc,#24] ; [0x9f4] = 0x50004000
        0x000009dc:    3040        @0      ADDS     r0,r0,#0x40
        0x000009de:    6204        .b      STR      r4,[r0,#0x20]
        0x000009e0:    4805        .H      LDR      r0,[pc,#20] ; [0x9f8] = 0x20000630
        0x000009e2:    6800        .h      LDR      r0,[r0,#0]
        0x000009e4:    2800        .(      CMP      r0,#0
        0x000009e6:    d004        ..      BEQ      0x9f2 ; GPAB_IRQHandler + 50
        0x000009e8:    4621        !F      MOV      r1,r4
        0x000009ea:    4628        (F      MOV      r0,r5
        0x000009ec:    4a02        .J      LDR      r2,[pc,#8] ; [0x9f8] = 0x20000630
        0x000009ee:    6812        .h      LDR      r2,[r2,#0]
        0x000009f0:    4790        .G      BLX      r2
        0x000009f2:    bd70        p.      POP      {r4-r6,pc}
    $d
        0x000009f4:    50004000    .@.P    DCD    1342193664
        0x000009f8:    20000630    0..     DCD    536872496
    $t
    i.GPCDE_IRQHandler
    GPCDE_IRQHandler
        0x000009fc:    b570        p.      PUSH     {r4-r6,lr}
        0x000009fe:    480d        .H      LDR      r0,[pc,#52] ; [0xa34] = 0x50004080
        0x00000a00:    6a04        .j      LDR      r4,[r0,#0x20]
        0x00000a02:    480c        .H      LDR      r0,[pc,#48] ; [0xa34] = 0x50004080
        0x00000a04:    3040        @0      ADDS     r0,r0,#0x40
        0x00000a06:    6a05        .j      LDR      r5,[r0,#0x20]
        0x00000a08:    480a        .H      LDR      r0,[pc,#40] ; [0xa34] = 0x50004080
        0x00000a0a:    3080        .0      ADDS     r0,r0,#0x80
        0x00000a0c:    6a06        .j      LDR      r6,[r0,#0x20]
        0x00000a0e:    4809        .H      LDR      r0,[pc,#36] ; [0xa34] = 0x50004080
        0x00000a10:    6204        .b      STR      r4,[r0,#0x20]
        0x00000a12:    4808        .H      LDR      r0,[pc,#32] ; [0xa34] = 0x50004080
        0x00000a14:    3040        @0      ADDS     r0,r0,#0x40
        0x00000a16:    6205        .b      STR      r5,[r0,#0x20]
        0x00000a18:    4806        .H      LDR      r0,[pc,#24] ; [0xa34] = 0x50004080
        0x00000a1a:    3080        .0      ADDS     r0,r0,#0x80
        0x00000a1c:    6206        .b      STR      r6,[r0,#0x20]
        0x00000a1e:    4806        .H      LDR      r0,[pc,#24] ; [0xa38] = 0x20000634
        0x00000a20:    6800        .h      LDR      r0,[r0,#0]
        0x00000a22:    2800        .(      CMP      r0,#0
        0x00000a24:    d005        ..      BEQ      0xa32 ; GPCDE_IRQHandler + 54
        0x00000a26:    4632        2F      MOV      r2,r6
        0x00000a28:    4629        )F      MOV      r1,r5
        0x00000a2a:    4620         F      MOV      r0,r4
        0x00000a2c:    4b02        .K      LDR      r3,[pc,#8] ; [0xa38] = 0x20000634
        0x00000a2e:    681b        .h      LDR      r3,[r3,#0]
        0x00000a30:    4798        .G      BLX      r3
        0x00000a32:    bd70        p.      POP      {r4-r6,pc}
    $d
        0x00000a34:    50004080    .@.P    DCD    1342193792
        0x00000a38:    20000634    4..     DCD    536872500
    $t
    i.Initial_panel
    Initial_panel
        0x00000a3c:    4883        .H      LDR      r0,[pc,#524] ; [0xc4c] = 0x50000200
        0x00000a3e:    6880        .h      LDR      r0,[r0,#8]
        0x00000a40:    2101        .!      MOVS     r1,#1
        0x00000a42:    03c9        ..      LSLS     r1,r1,#15
        0x00000a44:    4388        .C      BICS     r0,r0,r1
        0x00000a46:    1840        @.      ADDS     r0,r0,r1
        0x00000a48:    4980        .I      LDR      r1,[pc,#512] ; [0xc4c] = 0x50000200
        0x00000a4a:    6088        .`      STR      r0,[r1,#8]
        0x00000a4c:    2005        .       MOVS     r0,#5
        0x00000a4e:    0700        ..      LSLS     r0,r0,#28
        0x00000a50:    68c0        .h      LDR      r0,[r0,#0xc]
        0x00000a52:    0189        ..      LSLS     r1,r1,#6
        0x00000a54:    4388        .C      BICS     r0,r0,r1
        0x00000a56:    1840        @.      ADDS     r0,r0,r1
        0x00000a58:    2105        .!      MOVS     r1,#5
        0x00000a5a:    0709        ..      LSLS     r1,r1,#28
        0x00000a5c:    60c8        .`      STR      r0,[r1,#0xc]
        0x00000a5e:    4608        .F      MOV      r0,r1
        0x00000a60:    68c0        .h      LDR      r0,[r0,#0xc]
        0x00000a62:    2101        .!      MOVS     r1,#1
        0x00000a64:    03c9        ..      LSLS     r1,r1,#15
        0x00000a66:    4388        .C      BICS     r0,r0,r1
        0x00000a68:    2105        .!      MOVS     r1,#5
        0x00000a6a:    0709        ..      LSLS     r1,r1,#28
        0x00000a6c:    60c8        .`      STR      r0,[r1,#0xc]
        0x00000a6e:    4608        .F      MOV      r0,r1
        0x00000a70:    6bc0        .k      LDR      r0,[r0,#0x3c]
        0x00000a72:    21ff        .!      MOVS     r1,#0xff
        0x00000a74:    3101        .1      ADDS     r1,#1
        0x00000a76:    4388        .C      BICS     r0,r0,r1
        0x00000a78:    1840        @.      ADDS     r0,r0,r1
        0x00000a7a:    2105        .!      MOVS     r1,#5
        0x00000a7c:    0709        ..      LSLS     r1,r1,#28
        0x00000a7e:    63c8        .c      STR      r0,[r1,#0x3c]
        0x00000a80:    4608        .F      MOV      r0,r1
        0x00000a82:    6bc0        .k      LDR      r0,[r0,#0x3c]
        0x00000a84:    2101        .!      MOVS     r1,#1
        0x00000a86:    0249        I.      LSLS     r1,r1,#9
        0x00000a88:    4388        .C      BICS     r0,r0,r1
        0x00000a8a:    1840        @.      ADDS     r0,r0,r1
        0x00000a8c:    2105        .!      MOVS     r1,#5
        0x00000a8e:    0709        ..      LSLS     r1,r1,#28
        0x00000a90:    63c8        .c      STR      r0,[r1,#0x3c]
        0x00000a92:    4608        .F      MOV      r0,r1
        0x00000a94:    6bc0        .k      LDR      r0,[r0,#0x3c]
        0x00000a96:    2101        .!      MOVS     r1,#1
        0x00000a98:    02c9        ..      LSLS     r1,r1,#11
        0x00000a9a:    4388        .C      BICS     r0,r0,r1
        0x00000a9c:    1840        @.      ADDS     r0,r0,r1
        0x00000a9e:    2105        .!      MOVS     r1,#5
        0x00000aa0:    0709        ..      LSLS     r1,r1,#28
        0x00000aa2:    63c8        .c      STR      r0,[r1,#0x3c]
        0x00000aa4:    486a        jH      LDR      r0,[pc,#424] ; [0xc50] = 0x2000001c
        0x00000aa6:    68c0        .h      LDR      r0,[r0,#0xc]
        0x00000aa8:    6800        .h      LDR      r0,[r0,#0]
        0x00000aaa:    2101        .!      MOVS     r1,#1
        0x00000aac:    02c9        ..      LSLS     r1,r1,#11
        0x00000aae:    4388        .C      BICS     r0,r0,r1
        0x00000ab0:    1840        @.      ADDS     r0,r0,r1
        0x00000ab2:    4967        gI      LDR      r1,[pc,#412] ; [0xc50] = 0x2000001c
        0x00000ab4:    68c9        .h      LDR      r1,[r1,#0xc]
        0x00000ab6:    6008        .`      STR      r0,[r1,#0]
        0x00000ab8:    4865        eH      LDR      r0,[pc,#404] ; [0xc50] = 0x2000001c
        0x00000aba:    68c0        .h      LDR      r0,[r0,#0xc]
        0x00000abc:    6800        .h      LDR      r0,[r0,#0]
        0x00000abe:    21f8        .!      MOVS     r1,#0xf8
        0x00000ac0:    4388        .C      BICS     r0,r0,r1
        0x00000ac2:    3048        H0      ADDS     r0,r0,#0x48
        0x00000ac4:    4962        bI      LDR      r1,[pc,#392] ; [0xc50] = 0x2000001c
        0x00000ac6:    68c9        .h      LDR      r1,[r1,#0xc]
        0x00000ac8:    6008        .`      STR      r0,[r1,#0]
        0x00000aca:    4861        aH      LDR      r0,[pc,#388] ; [0xc50] = 0x2000001c
        0x00000acc:    68c0        .h      LDR      r0,[r0,#0xc]
        0x00000ace:    6800        .h      LDR      r0,[r0,#0]
        0x00000ad0:    2104        .!      MOVS     r1,#4
        0x00000ad2:    4388        .C      BICS     r0,r0,r1
        0x00000ad4:    1d00        ..      ADDS     r0,r0,#4
        0x00000ad6:    495e        ^I      LDR      r1,[pc,#376] ; [0xc50] = 0x2000001c
        0x00000ad8:    68c9        .h      LDR      r1,[r1,#0xc]
        0x00000ada:    6008        .`      STR      r0,[r1,#0]
        0x00000adc:    485c        \H      LDR      r0,[pc,#368] ; [0xc50] = 0x2000001c
        0x00000ade:    68c0        .h      LDR      r0,[r0,#0xc]
        0x00000ae0:    6840        @h      LDR      r0,[r0,#4]
        0x00000ae2:    0c00        ..      LSRS     r0,r0,#16
        0x00000ae4:    0400        ..      LSLS     r0,r0,#16
        0x00000ae6:    1cc0        ..      ADDS     r0,r0,#3
        0x00000ae8:    4959        YI      LDR      r1,[pc,#356] ; [0xc50] = 0x2000001c
        0x00000aea:    68c9        .h      LDR      r1,[r1,#0xc]
        0x00000aec:    6048        H`      STR      r0,[r1,#4]
        0x00000aee:    4858        XH      LDR      r0,[pc,#352] ; [0xc50] = 0x2000001c
        0x00000af0:    68c0        .h      LDR      r0,[r0,#0xc]
        0x00000af2:    6880        .h      LDR      r0,[r0,#8]
        0x00000af4:    0880        ..      LSRS     r0,r0,#2
        0x00000af6:    0080        ..      LSLS     r0,r0,#2
        0x00000af8:    1c40        @.      ADDS     r0,r0,#1
        0x00000afa:    4955        UI      LDR      r1,[pc,#340] ; [0xc50] = 0x2000001c
        0x00000afc:    68c9        .h      LDR      r1,[r1,#0xc]
        0x00000afe:    6088        .`      STR      r0,[r1,#8]
        0x00000b00:    20eb        .       MOVS     r0,#0xeb
        0x00000b02:    4953        SI      LDR      r1,[pc,#332] ; [0xc50] = 0x2000001c
        0x00000b04:    68c9        .h      LDR      r1,[r1,#0xc]
        0x00000b06:    6208        .b      STR      r0,[r1,#0x20]
        0x00000b08:    4851        QH      LDR      r0,[pc,#324] ; [0xc50] = 0x2000001c
        0x00000b0a:    68c0        .h      LDR      r0,[r0,#0xc]
        0x00000b0c:    6800        .h      LDR      r0,[r0,#0]
        0x00000b0e:    0840        @.      LSRS     r0,r0,#1
        0x00000b10:    0040        @.      LSLS     r0,r0,#1
        0x00000b12:    1c40        @.      ADDS     r0,r0,#1
        0x00000b14:    494e        NI      LDR      r1,[pc,#312] ; [0xc50] = 0x2000001c
        0x00000b16:    68c9        .h      LDR      r1,[r1,#0xc]
        0x00000b18:    6008        .`      STR      r0,[r1,#0]
        0x00000b1a:    bf00        ..      NOP      
        0x00000b1c:    484c        LH      LDR      r0,[pc,#304] ; [0xc50] = 0x2000001c
        0x00000b1e:    68c0        .h      LDR      r0,[r0,#0xc]
        0x00000b20:    6800        .h      LDR      r0,[r0,#0]
        0x00000b22:    07c0        ..      LSLS     r0,r0,#31
        0x00000b24:    0fc0        ..      LSRS     r0,r0,#31
        0x00000b26:    2801        .(      CMP      r0,#1
        0x00000b28:    d0f8        ..      BEQ      0xb1c ; Initial_panel + 224
        0x00000b2a:    4849        IH      LDR      r0,[pc,#292] ; [0xc50] = 0x2000001c
        0x00000b2c:    68c0        .h      LDR      r0,[r0,#0xc]
        0x00000b2e:    6880        .h      LDR      r0,[r0,#8]
        0x00000b30:    0880        ..      LSRS     r0,r0,#2
        0x00000b32:    0080        ..      LSLS     r0,r0,#2
        0x00000b34:    4946        FI      LDR      r1,[pc,#280] ; [0xc50] = 0x2000001c
        0x00000b36:    68c9        .h      LDR      r1,[r1,#0xc]
        0x00000b38:    6088        .`      STR      r0,[r1,#8]
        0x00000b3a:    4845        EH      LDR      r0,[pc,#276] ; [0xc50] = 0x2000001c
        0x00000b3c:    68c0        .h      LDR      r0,[r0,#0xc]
        0x00000b3e:    6880        .h      LDR      r0,[r0,#8]
        0x00000b40:    0880        ..      LSRS     r0,r0,#2
        0x00000b42:    0080        ..      LSLS     r0,r0,#2
        0x00000b44:    1c40        @.      ADDS     r0,r0,#1
        0x00000b46:    4942        BI      LDR      r1,[pc,#264] ; [0xc50] = 0x2000001c
        0x00000b48:    68c9        .h      LDR      r1,[r1,#0xc]
        0x00000b4a:    6088        .`      STR      r0,[r1,#8]
        0x00000b4c:    2081        .       MOVS     r0,#0x81
        0x00000b4e:    4940        @I      LDR      r1,[pc,#256] ; [0xc50] = 0x2000001c
        0x00000b50:    68c9        .h      LDR      r1,[r1,#0xc]
        0x00000b52:    6208        .b      STR      r0,[r1,#0x20]
        0x00000b54:    483e        >H      LDR      r0,[pc,#248] ; [0xc50] = 0x2000001c
        0x00000b56:    68c0        .h      LDR      r0,[r0,#0xc]
        0x00000b58:    6800        .h      LDR      r0,[r0,#0]
        0x00000b5a:    0840        @.      LSRS     r0,r0,#1
        0x00000b5c:    0040        @.      LSLS     r0,r0,#1
        0x00000b5e:    1c40        @.      ADDS     r0,r0,#1
        0x00000b60:    493b        ;I      LDR      r1,[pc,#236] ; [0xc50] = 0x2000001c
        0x00000b62:    68c9        .h      LDR      r1,[r1,#0xc]
        0x00000b64:    6008        .`      STR      r0,[r1,#0]
        0x00000b66:    bf00        ..      NOP      
        0x00000b68:    4839        9H      LDR      r0,[pc,#228] ; [0xc50] = 0x2000001c
        0x00000b6a:    68c0        .h      LDR      r0,[r0,#0xc]
        0x00000b6c:    6800        .h      LDR      r0,[r0,#0]
        0x00000b6e:    07c0        ..      LSLS     r0,r0,#31
        0x00000b70:    0fc0        ..      LSRS     r0,r0,#31
        0x00000b72:    2801        .(      CMP      r0,#1
        0x00000b74:    d0f8        ..      BEQ      0xb68 ; Initial_panel + 300
        0x00000b76:    20a0        .       MOVS     r0,#0xa0
        0x00000b78:    4935        5I      LDR      r1,[pc,#212] ; [0xc50] = 0x2000001c
        0x00000b7a:    68c9        .h      LDR      r1,[r1,#0xc]
        0x00000b7c:    6208        .b      STR      r0,[r1,#0x20]
        0x00000b7e:    4834        4H      LDR      r0,[pc,#208] ; [0xc50] = 0x2000001c
        0x00000b80:    68c0        .h      LDR      r0,[r0,#0xc]
        0x00000b82:    6800        .h      LDR      r0,[r0,#0]
        0x00000b84:    0840        @.      LSRS     r0,r0,#1
        0x00000b86:    0040        @.      LSLS     r0,r0,#1
        0x00000b88:    1c40        @.      ADDS     r0,r0,#1
        0x00000b8a:    4931        1I      LDR      r1,[pc,#196] ; [0xc50] = 0x2000001c
        0x00000b8c:    68c9        .h      LDR      r1,[r1,#0xc]
        0x00000b8e:    6008        .`      STR      r0,[r1,#0]
        0x00000b90:    bf00        ..      NOP      
        0x00000b92:    482f        /H      LDR      r0,[pc,#188] ; [0xc50] = 0x2000001c
        0x00000b94:    68c0        .h      LDR      r0,[r0,#0xc]
        0x00000b96:    6800        .h      LDR      r0,[r0,#0]
        0x00000b98:    07c0        ..      LSLS     r0,r0,#31
        0x00000b9a:    0fc0        ..      LSRS     r0,r0,#31
        0x00000b9c:    2801        .(      CMP      r0,#1
        0x00000b9e:    d0f8        ..      BEQ      0xb92 ; Initial_panel + 342
        0x00000ba0:    482b        +H      LDR      r0,[pc,#172] ; [0xc50] = 0x2000001c
        0x00000ba2:    68c0        .h      LDR      r0,[r0,#0xc]
        0x00000ba4:    6880        .h      LDR      r0,[r0,#8]
        0x00000ba6:    0880        ..      LSRS     r0,r0,#2
        0x00000ba8:    0080        ..      LSLS     r0,r0,#2
        0x00000baa:    4929        )I      LDR      r1,[pc,#164] ; [0xc50] = 0x2000001c
        0x00000bac:    68c9        .h      LDR      r1,[r1,#0xc]
        0x00000bae:    6088        .`      STR      r0,[r1,#8]
        0x00000bb0:    4827        'H      LDR      r0,[pc,#156] ; [0xc50] = 0x2000001c
        0x00000bb2:    68c0        .h      LDR      r0,[r0,#0xc]
        0x00000bb4:    6880        .h      LDR      r0,[r0,#8]
        0x00000bb6:    0880        ..      LSRS     r0,r0,#2
        0x00000bb8:    0080        ..      LSLS     r0,r0,#2
        0x00000bba:    1c40        @.      ADDS     r0,r0,#1
        0x00000bbc:    4924        $I      LDR      r1,[pc,#144] ; [0xc50] = 0x2000001c
        0x00000bbe:    68c9        .h      LDR      r1,[r1,#0xc]
        0x00000bc0:    6088        .`      STR      r0,[r1,#8]
        0x00000bc2:    20c0        .       MOVS     r0,#0xc0
        0x00000bc4:    4922        "I      LDR      r1,[pc,#136] ; [0xc50] = 0x2000001c
        0x00000bc6:    68c9        .h      LDR      r1,[r1,#0xc]
        0x00000bc8:    6208        .b      STR      r0,[r1,#0x20]
        0x00000bca:    4821        !H      LDR      r0,[pc,#132] ; [0xc50] = 0x2000001c
        0x00000bcc:    68c0        .h      LDR      r0,[r0,#0xc]
        0x00000bce:    6800        .h      LDR      r0,[r0,#0]
        0x00000bd0:    0840        @.      LSRS     r0,r0,#1
        0x00000bd2:    0040        @.      LSLS     r0,r0,#1
        0x00000bd4:    1c40        @.      ADDS     r0,r0,#1
        0x00000bd6:    491e        .I      LDR      r1,[pc,#120] ; [0xc50] = 0x2000001c
        0x00000bd8:    68c9        .h      LDR      r1,[r1,#0xc]
        0x00000bda:    6008        .`      STR      r0,[r1,#0]
        0x00000bdc:    bf00        ..      NOP      
        0x00000bde:    481c        .H      LDR      r0,[pc,#112] ; [0xc50] = 0x2000001c
        0x00000be0:    68c0        .h      LDR      r0,[r0,#0xc]
        0x00000be2:    6800        .h      LDR      r0,[r0,#0]
        0x00000be4:    07c0        ..      LSLS     r0,r0,#31
        0x00000be6:    0fc0        ..      LSRS     r0,r0,#31
        0x00000be8:    2801        .(      CMP      r0,#1
        0x00000bea:    d0f8        ..      BEQ      0xbde ; Initial_panel + 418
        0x00000bec:    4818        .H      LDR      r0,[pc,#96] ; [0xc50] = 0x2000001c
        0x00000bee:    68c0        .h      LDR      r0,[r0,#0xc]
        0x00000bf0:    6880        .h      LDR      r0,[r0,#8]
        0x00000bf2:    0880        ..      LSRS     r0,r0,#2
        0x00000bf4:    0080        ..      LSLS     r0,r0,#2
        0x00000bf6:    4916        .I      LDR      r1,[pc,#88] ; [0xc50] = 0x2000001c
        0x00000bf8:    68c9        .h      LDR      r1,[r1,#0xc]
        0x00000bfa:    6088        .`      STR      r0,[r1,#8]
        0x00000bfc:    4814        .H      LDR      r0,[pc,#80] ; [0xc50] = 0x2000001c
        0x00000bfe:    68c0        .h      LDR      r0,[r0,#0xc]
        0x00000c00:    6880        .h      LDR      r0,[r0,#8]
        0x00000c02:    0880        ..      LSRS     r0,r0,#2
        0x00000c04:    0080        ..      LSLS     r0,r0,#2
        0x00000c06:    1c40        @.      ADDS     r0,r0,#1
        0x00000c08:    4911        .I      LDR      r1,[pc,#68] ; [0xc50] = 0x2000001c
        0x00000c0a:    68c9        .h      LDR      r1,[r1,#0xc]
        0x00000c0c:    6088        .`      STR      r0,[r1,#8]
        0x00000c0e:    20af        .       MOVS     r0,#0xaf
        0x00000c10:    490f        .I      LDR      r1,[pc,#60] ; [0xc50] = 0x2000001c
        0x00000c12:    68c9        .h      LDR      r1,[r1,#0xc]
        0x00000c14:    6208        .b      STR      r0,[r1,#0x20]
        0x00000c16:    480e        .H      LDR      r0,[pc,#56] ; [0xc50] = 0x2000001c
        0x00000c18:    68c0        .h      LDR      r0,[r0,#0xc]
        0x00000c1a:    6800        .h      LDR      r0,[r0,#0]
        0x00000c1c:    0840        @.      LSRS     r0,r0,#1
        0x00000c1e:    0040        @.      LSLS     r0,r0,#1
        0x00000c20:    1c40        @.      ADDS     r0,r0,#1
        0x00000c22:    490b        .I      LDR      r1,[pc,#44] ; [0xc50] = 0x2000001c
        0x00000c24:    68c9        .h      LDR      r1,[r1,#0xc]
        0x00000c26:    6008        .`      STR      r0,[r1,#0]
        0x00000c28:    bf00        ..      NOP      
        0x00000c2a:    4809        .H      LDR      r0,[pc,#36] ; [0xc50] = 0x2000001c
        0x00000c2c:    68c0        .h      LDR      r0,[r0,#0xc]
        0x00000c2e:    6800        .h      LDR      r0,[r0,#0]
        0x00000c30:    07c0        ..      LSLS     r0,r0,#31
        0x00000c32:    0fc0        ..      LSRS     r0,r0,#31
        0x00000c34:    2801        .(      CMP      r0,#1
        0x00000c36:    d0f8        ..      BEQ      0xc2a ; Initial_panel + 494
        0x00000c38:    4805        .H      LDR      r0,[pc,#20] ; [0xc50] = 0x2000001c
        0x00000c3a:    68c0        .h      LDR      r0,[r0,#0xc]
        0x00000c3c:    6880        .h      LDR      r0,[r0,#8]
        0x00000c3e:    0880        ..      LSRS     r0,r0,#2
        0x00000c40:    0080        ..      LSLS     r0,r0,#2
        0x00000c42:    4903        .I      LDR      r1,[pc,#12] ; [0xc50] = 0x2000001c
        0x00000c44:    68c9        .h      LDR      r1,[r1,#0xc]
        0x00000c46:    6088        .`      STR      r0,[r1,#8]
        0x00000c48:    4770        pG      BX       lr
    $d
        0x00000c4a:    0000        ..      DCW    0
        0x00000c4c:    50000200    ...P    DCD    1342177792
        0x00000c50:    2000001c    ...     DCD    536870940
    $t
    i.PWRWU_IRQHandler
    PWRWU_IRQHandler
        0x00000c54:    b510        ..      PUSH     {r4,lr}
        0x00000c56:    4807        .H      LDR      r0,[pc,#28] ; [0xc74] = 0x50000200
        0x00000c58:    6800        .h      LDR      r0,[r0,#0]
        0x00000c5a:    2140        @!      MOVS     r1,#0x40
        0x00000c5c:    4388        .C      BICS     r0,r0,r1
        0x00000c5e:    3040        @0      ADDS     r0,r0,#0x40
        0x00000c60:    4904        .I      LDR      r1,[pc,#16] ; [0xc74] = 0x50000200
        0x00000c62:    6008        .`      STR      r0,[r1,#0]
        0x00000c64:    4804        .H      LDR      r0,[pc,#16] ; [0xc78] = 0x20000620
        0x00000c66:    6800        .h      LDR      r0,[r0,#0]
        0x00000c68:    2800        .(      CMP      r0,#0
        0x00000c6a:    d002        ..      BEQ      0xc72 ; PWRWU_IRQHandler + 30
        0x00000c6c:    4802        .H      LDR      r0,[pc,#8] ; [0xc78] = 0x20000620
        0x00000c6e:    6800        .h      LDR      r0,[r0,#0]
        0x00000c70:    4780        .G      BLX      r0
        0x00000c72:    bd10        ..      POP      {r4,pc}
    $d
        0x00000c74:    50000200    ...P    DCD    1342177792
        0x00000c78:    20000620     ..     DCD    536872480
    $t
    i.SPI0_IRQHandler
    SPI0_IRQHandler
        0x00000c7c:    b510        ..      PUSH     {r4,lr}
        0x00000c7e:    4816        .H      LDR      r0,[pc,#88] ; [0xcd8] = 0x40030000
        0x00000c80:    6800        .h      LDR      r0,[r0,#0]
        0x00000c82:    03c0        ..      LSLS     r0,r0,#15
        0x00000c84:    0fc0        ..      LSRS     r0,r0,#31
        0x00000c86:    2801        .(      CMP      r0,#1
        0x00000c88:    d10f        ..      BNE      0xcaa ; SPI0_IRQHandler + 46
        0x00000c8a:    4813        .H      LDR      r0,[pc,#76] ; [0xcd8] = 0x40030000
        0x00000c8c:    6800        .h      LDR      r0,[r0,#0]
        0x00000c8e:    2101        .!      MOVS     r1,#1
        0x00000c90:    0409        ..      LSLS     r1,r1,#16
        0x00000c92:    4388        .C      BICS     r0,r0,r1
        0x00000c94:    1840        @.      ADDS     r0,r0,r1
        0x00000c96:    4910        .I      LDR      r1,[pc,#64] ; [0xcd8] = 0x40030000
        0x00000c98:    6008        .`      STR      r0,[r1,#0]
        0x00000c9a:    4810        .H      LDR      r0,[pc,#64] ; [0xcdc] = 0x20000640
        0x00000c9c:    6840        @h      LDR      r0,[r0,#4]
        0x00000c9e:    2800        .(      CMP      r0,#0
        0x00000ca0:    d003        ..      BEQ      0xcaa ; SPI0_IRQHandler + 46
        0x00000ca2:    4a0e        .J      LDR      r2,[pc,#56] ; [0xcdc] = 0x20000640
        0x00000ca4:    6890        .h      LDR      r0,[r2,#8]
        0x00000ca6:    6851        Qh      LDR      r1,[r2,#4]
        0x00000ca8:    4788        .G      BLX      r1
        0x00000caa:    480b        .H      LDR      r0,[pc,#44] ; [0xcd8] = 0x40030000
        0x00000cac:    6bc0        .k      LDR      r0,[r0,#0x3c]
        0x00000cae:    0500        ..      LSLS     r0,r0,#20
        0x00000cb0:    0fc0        ..      LSRS     r0,r0,#31
        0x00000cb2:    2801        .(      CMP      r0,#1
        0x00000cb4:    d10f        ..      BNE      0xcd6 ; SPI0_IRQHandler + 90
        0x00000cb6:    4808        .H      LDR      r0,[pc,#32] ; [0xcd8] = 0x40030000
        0x00000cb8:    6bc0        .k      LDR      r0,[r0,#0x3c]
        0x00000cba:    2101        .!      MOVS     r1,#1
        0x00000cbc:    02c9        ..      LSLS     r1,r1,#11
        0x00000cbe:    4388        .C      BICS     r0,r0,r1
        0x00000cc0:    1840        @.      ADDS     r0,r0,r1
        0x00000cc2:    4905        .I      LDR      r1,[pc,#20] ; [0xcd8] = 0x40030000
        0x00000cc4:    63c8        .c      STR      r0,[r1,#0x3c]
        0x00000cc6:    4805        .H      LDR      r0,[pc,#20] ; [0xcdc] = 0x20000640
        0x00000cc8:    68c0        .h      LDR      r0,[r0,#0xc]
        0x00000cca:    2800        .(      CMP      r0,#0
        0x00000ccc:    d003        ..      BEQ      0xcd6 ; SPI0_IRQHandler + 90
        0x00000cce:    4a03        .J      LDR      r2,[pc,#12] ; [0xcdc] = 0x20000640
        0x00000cd0:    6910        .i      LDR      r0,[r2,#0x10]
        0x00000cd2:    68d1        .h      LDR      r1,[r2,#0xc]
        0x00000cd4:    4788        .G      BLX      r1
        0x00000cd6:    bd10        ..      POP      {r4,pc}
    $d
        0x00000cd8:    40030000    ...@    DCD    1073938432
        0x00000cdc:    20000640    @..     DCD    536872512
    $t
    i.SPI1_IRQHandler
    SPI1_IRQHandler
        0x00000ce0:    b510        ..      PUSH     {r4,lr}
        0x00000ce2:    4816        .H      LDR      r0,[pc,#88] ; [0xd3c] = 0x40034000
        0x00000ce4:    6800        .h      LDR      r0,[r0,#0]
        0x00000ce6:    03c0        ..      LSLS     r0,r0,#15
        0x00000ce8:    0fc0        ..      LSRS     r0,r0,#31
        0x00000cea:    2801        .(      CMP      r0,#1
        0x00000cec:    d10f        ..      BNE      0xd0e ; SPI1_IRQHandler + 46
        0x00000cee:    4813        .H      LDR      r0,[pc,#76] ; [0xd3c] = 0x40034000
        0x00000cf0:    6800        .h      LDR      r0,[r0,#0]
        0x00000cf2:    2101        .!      MOVS     r1,#1
        0x00000cf4:    0409        ..      LSLS     r1,r1,#16
        0x00000cf6:    4388        .C      BICS     r0,r0,r1
        0x00000cf8:    1840        @.      ADDS     r0,r0,r1
        0x00000cfa:    4910        .I      LDR      r1,[pc,#64] ; [0xd3c] = 0x40034000
        0x00000cfc:    6008        .`      STR      r0,[r1,#0]
        0x00000cfe:    4810        .H      LDR      r0,[pc,#64] ; [0xd40] = 0x20000640
        0x00000d00:    6980        .i      LDR      r0,[r0,#0x18]
        0x00000d02:    2800        .(      CMP      r0,#0
        0x00000d04:    d003        ..      BEQ      0xd0e ; SPI1_IRQHandler + 46
        0x00000d06:    4a0e        .J      LDR      r2,[pc,#56] ; [0xd40] = 0x20000640
        0x00000d08:    69d0        .i      LDR      r0,[r2,#0x1c]
        0x00000d0a:    6991        .i      LDR      r1,[r2,#0x18]
        0x00000d0c:    4788        .G      BLX      r1
        0x00000d0e:    480b        .H      LDR      r0,[pc,#44] ; [0xd3c] = 0x40034000
        0x00000d10:    6bc0        .k      LDR      r0,[r0,#0x3c]
        0x00000d12:    0500        ..      LSLS     r0,r0,#20
        0x00000d14:    0fc0        ..      LSRS     r0,r0,#31
        0x00000d16:    2801        .(      CMP      r0,#1
        0x00000d18:    d10f        ..      BNE      0xd3a ; SPI1_IRQHandler + 90
        0x00000d1a:    4808        .H      LDR      r0,[pc,#32] ; [0xd3c] = 0x40034000
        0x00000d1c:    6bc0        .k      LDR      r0,[r0,#0x3c]
        0x00000d1e:    2101        .!      MOVS     r1,#1
        0x00000d20:    02c9        ..      LSLS     r1,r1,#11
        0x00000d22:    4388        .C      BICS     r0,r0,r1
        0x00000d24:    1840        @.      ADDS     r0,r0,r1
        0x00000d26:    4905        .I      LDR      r1,[pc,#20] ; [0xd3c] = 0x40034000
        0x00000d28:    63c8        .c      STR      r0,[r1,#0x3c]
        0x00000d2a:    4805        .H      LDR      r0,[pc,#20] ; [0xd40] = 0x20000640
        0x00000d2c:    6a00        .j      LDR      r0,[r0,#0x20]
        0x00000d2e:    2800        .(      CMP      r0,#0
        0x00000d30:    d003        ..      BEQ      0xd3a ; SPI1_IRQHandler + 90
        0x00000d32:    4a03        .J      LDR      r2,[pc,#12] ; [0xd40] = 0x20000640
        0x00000d34:    6a50        Pj      LDR      r0,[r2,#0x24]
        0x00000d36:    6a11        .j      LDR      r1,[r2,#0x20]
        0x00000d38:    4788        .G      BLX      r1
        0x00000d3a:    bd10        ..      POP      {r4,pc}
    $d
        0x00000d3c:    40034000    .@.@    DCD    1073954816
        0x00000d40:    20000640    @..     DCD    536872512
    $t
    i.SPI2_IRQHandler
    SPI2_IRQHandler
        0x00000d44:    b510        ..      PUSH     {r4,lr}
        0x00000d46:    4816        .H      LDR      r0,[pc,#88] ; [0xda0] = 0x40130000
        0x00000d48:    6800        .h      LDR      r0,[r0,#0]
        0x00000d4a:    03c0        ..      LSLS     r0,r0,#15
        0x00000d4c:    0fc0        ..      LSRS     r0,r0,#31
        0x00000d4e:    2801        .(      CMP      r0,#1
        0x00000d50:    d10f        ..      BNE      0xd72 ; SPI2_IRQHandler + 46
        0x00000d52:    4813        .H      LDR      r0,[pc,#76] ; [0xda0] = 0x40130000
        0x00000d54:    6800        .h      LDR      r0,[r0,#0]
        0x00000d56:    2101        .!      MOVS     r1,#1
        0x00000d58:    0409        ..      LSLS     r1,r1,#16
        0x00000d5a:    4388        .C      BICS     r0,r0,r1
        0x00000d5c:    1840        @.      ADDS     r0,r0,r1
        0x00000d5e:    4910        .I      LDR      r1,[pc,#64] ; [0xda0] = 0x40130000
        0x00000d60:    6008        .`      STR      r0,[r1,#0]
        0x00000d62:    4810        .H      LDR      r0,[pc,#64] ; [0xda4] = 0x20000640
        0x00000d64:    6ac0        .j      LDR      r0,[r0,#0x2c]
        0x00000d66:    2800        .(      CMP      r0,#0
        0x00000d68:    d003        ..      BEQ      0xd72 ; SPI2_IRQHandler + 46
        0x00000d6a:    4a0e        .J      LDR      r2,[pc,#56] ; [0xda4] = 0x20000640
        0x00000d6c:    6b10        .k      LDR      r0,[r2,#0x30]
        0x00000d6e:    6ad1        .j      LDR      r1,[r2,#0x2c]
        0x00000d70:    4788        .G      BLX      r1
        0x00000d72:    480b        .H      LDR      r0,[pc,#44] ; [0xda0] = 0x40130000
        0x00000d74:    6bc0        .k      LDR      r0,[r0,#0x3c]
        0x00000d76:    0500        ..      LSLS     r0,r0,#20
        0x00000d78:    0fc0        ..      LSRS     r0,r0,#31
        0x00000d7a:    2801        .(      CMP      r0,#1
        0x00000d7c:    d10f        ..      BNE      0xd9e ; SPI2_IRQHandler + 90
        0x00000d7e:    4808        .H      LDR      r0,[pc,#32] ; [0xda0] = 0x40130000
        0x00000d80:    6bc0        .k      LDR      r0,[r0,#0x3c]
        0x00000d82:    2101        .!      MOVS     r1,#1
        0x00000d84:    02c9        ..      LSLS     r1,r1,#11
        0x00000d86:    4388        .C      BICS     r0,r0,r1
        0x00000d88:    1840        @.      ADDS     r0,r0,r1
        0x00000d8a:    4905        .I      LDR      r1,[pc,#20] ; [0xda0] = 0x40130000
        0x00000d8c:    63c8        .c      STR      r0,[r1,#0x3c]
        0x00000d8e:    4805        .H      LDR      r0,[pc,#20] ; [0xda4] = 0x20000640
        0x00000d90:    6b40        @k      LDR      r0,[r0,#0x34]
        0x00000d92:    2800        .(      CMP      r0,#0
        0x00000d94:    d003        ..      BEQ      0xd9e ; SPI2_IRQHandler + 90
        0x00000d96:    4a03        .J      LDR      r2,[pc,#12] ; [0xda4] = 0x20000640
        0x00000d98:    6b90        .k      LDR      r0,[r2,#0x38]
        0x00000d9a:    6b51        Qk      LDR      r1,[r2,#0x34]
        0x00000d9c:    4788        .G      BLX      r1
        0x00000d9e:    bd10        ..      POP      {r4,pc}
    $d
        0x00000da0:    40130000    ...@    DCD    1074987008
        0x00000da4:    20000640    @..     DCD    536872512
    $t
    i.SPI3_IRQHandler
    SPI3_IRQHandler
        0x00000da8:    b510        ..      PUSH     {r4,lr}
        0x00000daa:    4816        .H      LDR      r0,[pc,#88] ; [0xe04] = 0x40134000
        0x00000dac:    6800        .h      LDR      r0,[r0,#0]
        0x00000dae:    03c0        ..      LSLS     r0,r0,#15
        0x00000db0:    0fc0        ..      LSRS     r0,r0,#31
        0x00000db2:    2801        .(      CMP      r0,#1
        0x00000db4:    d10f        ..      BNE      0xdd6 ; SPI3_IRQHandler + 46
        0x00000db6:    4813        .H      LDR      r0,[pc,#76] ; [0xe04] = 0x40134000
        0x00000db8:    6800        .h      LDR      r0,[r0,#0]
        0x00000dba:    2101        .!      MOVS     r1,#1
        0x00000dbc:    0409        ..      LSLS     r1,r1,#16
        0x00000dbe:    4388        .C      BICS     r0,r0,r1
        0x00000dc0:    1840        @.      ADDS     r0,r0,r1
        0x00000dc2:    4910        .I      LDR      r1,[pc,#64] ; [0xe04] = 0x40134000
        0x00000dc4:    6008        .`      STR      r0,[r1,#0]
        0x00000dc6:    4810        .H      LDR      r0,[pc,#64] ; [0xe08] = 0x20000640
        0x00000dc8:    6c00        .l      LDR      r0,[r0,#0x40]
        0x00000dca:    2800        .(      CMP      r0,#0
        0x00000dcc:    d003        ..      BEQ      0xdd6 ; SPI3_IRQHandler + 46
        0x00000dce:    4a0e        .J      LDR      r2,[pc,#56] ; [0xe08] = 0x20000640
        0x00000dd0:    6c50        Pl      LDR      r0,[r2,#0x44]
        0x00000dd2:    6c11        .l      LDR      r1,[r2,#0x40]
        0x00000dd4:    4788        .G      BLX      r1
        0x00000dd6:    480b        .H      LDR      r0,[pc,#44] ; [0xe04] = 0x40134000
        0x00000dd8:    6bc0        .k      LDR      r0,[r0,#0x3c]
        0x00000dda:    0500        ..      LSLS     r0,r0,#20
        0x00000ddc:    0fc0        ..      LSRS     r0,r0,#31
        0x00000dde:    2801        .(      CMP      r0,#1
        0x00000de0:    d10f        ..      BNE      0xe02 ; SPI3_IRQHandler + 90
        0x00000de2:    4808        .H      LDR      r0,[pc,#32] ; [0xe04] = 0x40134000
        0x00000de4:    6bc0        .k      LDR      r0,[r0,#0x3c]
        0x00000de6:    2101        .!      MOVS     r1,#1
        0x00000de8:    02c9        ..      LSLS     r1,r1,#11
        0x00000dea:    4388        .C      BICS     r0,r0,r1
        0x00000dec:    1840        @.      ADDS     r0,r0,r1
        0x00000dee:    4905        .I      LDR      r1,[pc,#20] ; [0xe04] = 0x40134000
        0x00000df0:    63c8        .c      STR      r0,[r1,#0x3c]
        0x00000df2:    4805        .H      LDR      r0,[pc,#20] ; [0xe08] = 0x20000640
        0x00000df4:    6c80        .l      LDR      r0,[r0,#0x48]
        0x00000df6:    2800        .(      CMP      r0,#0
        0x00000df8:    d003        ..      BEQ      0xe02 ; SPI3_IRQHandler + 90
        0x00000dfa:    4a03        .J      LDR      r2,[pc,#12] ; [0xe08] = 0x20000640
        0x00000dfc:    6cd0        .l      LDR      r0,[r2,#0x4c]
        0x00000dfe:    6c91        .l      LDR      r1,[r2,#0x48]
        0x00000e00:    4788        .G      BLX      r1
        0x00000e02:    bd10        ..      POP      {r4,pc}
    $d
        0x00000e04:    40134000    .@.@    DCD    1075003392
        0x00000e08:    20000640    @..     DCD    536872512
    $t
    i.SetPACA
    SetPACA
        0x00000e0c:    4a3b        ;J      LDR      r2,[pc,#236] ; [0xefc] = 0x2000001c
        0x00000e0e:    68d2        .h      LDR      r2,[r2,#0xc]
        0x00000e10:    6892        .h      LDR      r2,[r2,#8]
        0x00000e12:    0892        ..      LSRS     r2,r2,#2
        0x00000e14:    0092        ..      LSLS     r2,r2,#2
        0x00000e16:    1c52        R.      ADDS     r2,r2,#1
        0x00000e18:    4b38        8K      LDR      r3,[pc,#224] ; [0xefc] = 0x2000001c
        0x00000e1a:    68db        .h      LDR      r3,[r3,#0xc]
        0x00000e1c:    609a        .`      STR      r2,[r3,#8]
        0x00000e1e:    22b0        ."      MOVS     r2,#0xb0
        0x00000e20:    4302        .C      ORRS     r2,r2,r0
        0x00000e22:    4b36        6K      LDR      r3,[pc,#216] ; [0xefc] = 0x2000001c
        0x00000e24:    68db        .h      LDR      r3,[r3,#0xc]
        0x00000e26:    621a        .b      STR      r2,[r3,#0x20]
        0x00000e28:    4a34        4J      LDR      r2,[pc,#208] ; [0xefc] = 0x2000001c
        0x00000e2a:    68d2        .h      LDR      r2,[r2,#0xc]
        0x00000e2c:    6812        .h      LDR      r2,[r2,#0]
        0x00000e2e:    0852        R.      LSRS     r2,r2,#1
        0x00000e30:    0052        R.      LSLS     r2,r2,#1
        0x00000e32:    1c52        R.      ADDS     r2,r2,#1
        0x00000e34:    4b31        1K      LDR      r3,[pc,#196] ; [0xefc] = 0x2000001c
        0x00000e36:    68db        .h      LDR      r3,[r3,#0xc]
        0x00000e38:    601a        .`      STR      r2,[r3,#0]
        0x00000e3a:    bf00        ..      NOP      
        0x00000e3c:    4a2f        /J      LDR      r2,[pc,#188] ; [0xefc] = 0x2000001c
        0x00000e3e:    68d2        .h      LDR      r2,[r2,#0xc]
        0x00000e40:    6812        .h      LDR      r2,[r2,#0]
        0x00000e42:    07d2        ..      LSLS     r2,r2,#31
        0x00000e44:    0fd2        ..      LSRS     r2,r2,#31
        0x00000e46:    2a01        .*      CMP      r2,#1
        0x00000e48:    d0f8        ..      BEQ      0xe3c ; SetPACA + 48
        0x00000e4a:    4a2c        ,J      LDR      r2,[pc,#176] ; [0xefc] = 0x2000001c
        0x00000e4c:    68d2        .h      LDR      r2,[r2,#0xc]
        0x00000e4e:    6892        .h      LDR      r2,[r2,#8]
        0x00000e50:    0892        ..      LSRS     r2,r2,#2
        0x00000e52:    0092        ..      LSLS     r2,r2,#2
        0x00000e54:    4b29        )K      LDR      r3,[pc,#164] ; [0xefc] = 0x2000001c
        0x00000e56:    68db        .h      LDR      r3,[r3,#0xc]
        0x00000e58:    609a        .`      STR      r2,[r3,#8]
        0x00000e5a:    4a28        (J      LDR      r2,[pc,#160] ; [0xefc] = 0x2000001c
        0x00000e5c:    68d2        .h      LDR      r2,[r2,#0xc]
        0x00000e5e:    6892        .h      LDR      r2,[r2,#8]
        0x00000e60:    0892        ..      LSRS     r2,r2,#2
        0x00000e62:    0092        ..      LSLS     r2,r2,#2
        0x00000e64:    1c52        R.      ADDS     r2,r2,#1
        0x00000e66:    4b25        %K      LDR      r3,[pc,#148] ; [0xefc] = 0x2000001c
        0x00000e68:    68db        .h      LDR      r3,[r3,#0xc]
        0x00000e6a:    609a        .`      STR      r2,[r3,#8]
        0x00000e6c:    110a        ..      ASRS     r2,r1,#4
        0x00000e6e:    2310        .#      MOVS     r3,#0x10
        0x00000e70:    431a        .C      ORRS     r2,r2,r3
        0x00000e72:    4b22        "K      LDR      r3,[pc,#136] ; [0xefc] = 0x2000001c
        0x00000e74:    68db        .h      LDR      r3,[r3,#0xc]
        0x00000e76:    621a        .b      STR      r2,[r3,#0x20]
        0x00000e78:    4a20         J      LDR      r2,[pc,#128] ; [0xefc] = 0x2000001c
        0x00000e7a:    68d2        .h      LDR      r2,[r2,#0xc]
        0x00000e7c:    6812        .h      LDR      r2,[r2,#0]
        0x00000e7e:    0852        R.      LSRS     r2,r2,#1
        0x00000e80:    0052        R.      LSLS     r2,r2,#1
        0x00000e82:    1c52        R.      ADDS     r2,r2,#1
        0x00000e84:    4b1d        .K      LDR      r3,[pc,#116] ; [0xefc] = 0x2000001c
        0x00000e86:    68db        .h      LDR      r3,[r3,#0xc]
        0x00000e88:    601a        .`      STR      r2,[r3,#0]
        0x00000e8a:    bf00        ..      NOP      
        0x00000e8c:    4a1b        .J      LDR      r2,[pc,#108] ; [0xefc] = 0x2000001c
        0x00000e8e:    68d2        .h      LDR      r2,[r2,#0xc]
        0x00000e90:    6812        .h      LDR      r2,[r2,#0]
        0x00000e92:    07d2        ..      LSLS     r2,r2,#31
        0x00000e94:    0fd2        ..      LSRS     r2,r2,#31
        0x00000e96:    2a01        .*      CMP      r2,#1
        0x00000e98:    d0f8        ..      BEQ      0xe8c ; SetPACA + 128
        0x00000e9a:    4a18        .J      LDR      r2,[pc,#96] ; [0xefc] = 0x2000001c
        0x00000e9c:    68d2        .h      LDR      r2,[r2,#0xc]
        0x00000e9e:    6892        .h      LDR      r2,[r2,#8]
        0x00000ea0:    0892        ..      LSRS     r2,r2,#2
        0x00000ea2:    0092        ..      LSLS     r2,r2,#2
        0x00000ea4:    4b15        .K      LDR      r3,[pc,#84] ; [0xefc] = 0x2000001c
        0x00000ea6:    68db        .h      LDR      r3,[r3,#0xc]
        0x00000ea8:    609a        .`      STR      r2,[r3,#8]
        0x00000eaa:    4a14        .J      LDR      r2,[pc,#80] ; [0xefc] = 0x2000001c
        0x00000eac:    68d2        .h      LDR      r2,[r2,#0xc]
        0x00000eae:    6892        .h      LDR      r2,[r2,#8]
        0x00000eb0:    0892        ..      LSRS     r2,r2,#2
        0x00000eb2:    0092        ..      LSLS     r2,r2,#2
        0x00000eb4:    1c52        R.      ADDS     r2,r2,#1
        0x00000eb6:    4b11        .K      LDR      r3,[pc,#68] ; [0xefc] = 0x2000001c
        0x00000eb8:    68db        .h      LDR      r3,[r3,#0xc]
        0x00000eba:    609a        .`      STR      r2,[r3,#8]
        0x00000ebc:    070a        ..      LSLS     r2,r1,#28
        0x00000ebe:    0f12        ..      LSRS     r2,r2,#28
        0x00000ec0:    4b0e        .K      LDR      r3,[pc,#56] ; [0xefc] = 0x2000001c
        0x00000ec2:    68db        .h      LDR      r3,[r3,#0xc]
        0x00000ec4:    621a        .b      STR      r2,[r3,#0x20]
        0x00000ec6:    4a0d        .J      LDR      r2,[pc,#52] ; [0xefc] = 0x2000001c
        0x00000ec8:    68d2        .h      LDR      r2,[r2,#0xc]
        0x00000eca:    6812        .h      LDR      r2,[r2,#0]
        0x00000ecc:    0852        R.      LSRS     r2,r2,#1
        0x00000ece:    0052        R.      LSLS     r2,r2,#1
        0x00000ed0:    1c52        R.      ADDS     r2,r2,#1
        0x00000ed2:    4b0a        .K      LDR      r3,[pc,#40] ; [0xefc] = 0x2000001c
        0x00000ed4:    68db        .h      LDR      r3,[r3,#0xc]
        0x00000ed6:    601a        .`      STR      r2,[r3,#0]
        0x00000ed8:    bf00        ..      NOP      
        0x00000eda:    4a08        .J      LDR      r2,[pc,#32] ; [0xefc] = 0x2000001c
        0x00000edc:    68d2        .h      LDR      r2,[r2,#0xc]
        0x00000ede:    6812        .h      LDR      r2,[r2,#0]
        0x00000ee0:    07d2        ..      LSLS     r2,r2,#31
        0x00000ee2:    0fd2        ..      LSRS     r2,r2,#31
        0x00000ee4:    2a01        .*      CMP      r2,#1
        0x00000ee6:    d0f8        ..      BEQ      0xeda ; SetPACA + 206
        0x00000ee8:    4a04        .J      LDR      r2,[pc,#16] ; [0xefc] = 0x2000001c
        0x00000eea:    68d2        .h      LDR      r2,[r2,#0xc]
        0x00000eec:    6892        .h      LDR      r2,[r2,#8]
        0x00000eee:    0892        ..      LSRS     r2,r2,#2
        0x00000ef0:    0092        ..      LSLS     r2,r2,#2
        0x00000ef2:    4b02        .K      LDR      r3,[pc,#8] ; [0xefc] = 0x2000001c
        0x00000ef4:    68db        .h      LDR      r3,[r3,#0xc]
        0x00000ef6:    609a        .`      STR      r2,[r3,#8]
        0x00000ef8:    4770        pG      BX       lr
    $d
        0x00000efa:    0000        ..      DCW    0
        0x00000efc:    2000001c    ...     DCD    536870940
    $t
    i.Show_Word
    Show_Word
        0x00000f00:    b5fc        ..      PUSH     {r2-r7,lr}
        0x00000f02:    4605        .F      MOV      r5,r0
        0x00000f04:    460e        .F      MOV      r6,r1
        0x00000f06:    4617        .F      MOV      r7,r2
        0x00000f08:    2400        .$      MOVS     r4,#0
        0x00000f0a:    2000        .       MOVS     r0,#0
        0x00000f0c:    9001        ..      STR      r0,[sp,#4]
        0x00000f0e:    4638        8F      MOV      r0,r7
        0x00000f10:    3820         8      SUBS     r0,r0,#0x20
        0x00000f12:    0100        ..      LSLS     r0,r0,#4
        0x00000f14:    9001        ..      STR      r0,[sp,#4]
        0x00000f16:    bf00        ..      NOP      
        0x00000f18:    e011        ..      B        0xf3e ; Show_Word + 62
        0x00000f1a:    00f2        ..      LSLS     r2,r6,#3
        0x00000f1c:    2381        .#      MOVS     r3,#0x81
        0x00000f1e:    1a9a        ..      SUBS     r2,r3,r2
        0x00000f20:    1b12        ..      SUBS     r2,r2,r4
        0x00000f22:    b2d1        ..      UXTB     r1,r2
        0x00000f24:    066a        j.      LSLS     r2,r5,#25
        0x00000f26:    0e10        ..      LSRS     r0,r2,#24
        0x00000f28:    f7ffff70    ..p.    BL       SetPACA ; 0xe0c
        0x00000f2c:    9801        ..      LDR      r0,[sp,#4]
        0x00000f2e:    1900        ..      ADDS     r0,r0,r4
        0x00000f30:    4910        .I      LDR      r1,[pc,#64] ; [0xf74] = 0x2000002c
        0x00000f32:    5c08        .\      LDRB     r0,[r1,r0]
        0x00000f34:    9000        ..      STR      r0,[sp,#0]
        0x00000f36:    9800        ..      LDR      r0,[sp,#0]
        0x00000f38:    f000f89e    ....    BL       WriteData ; 0x1078
        0x00000f3c:    1c64        d.      ADDS     r4,r4,#1
        0x00000f3e:    2c08        .,      CMP      r4,#8
        0x00000f40:    dbeb        ..      BLT      0xf1a ; Show_Word + 26
        0x00000f42:    2400        .$      MOVS     r4,#0
        0x00000f44:    e013        ..      B        0xf6e ; Show_Word + 110
        0x00000f46:    00f2        ..      LSLS     r2,r6,#3
        0x00000f48:    2381        .#      MOVS     r3,#0x81
        0x00000f4a:    1a9a        ..      SUBS     r2,r3,r2
        0x00000f4c:    1b12        ..      SUBS     r2,r2,r4
        0x00000f4e:    b2d1        ..      UXTB     r1,r2
        0x00000f50:    006a        j.      LSLS     r2,r5,#1
        0x00000f52:    1c52        R.      ADDS     r2,r2,#1
        0x00000f54:    b2d0        ..      UXTB     r0,r2
        0x00000f56:    f7ffff59    ..Y.    BL       SetPACA ; 0xe0c
        0x00000f5a:    9801        ..      LDR      r0,[sp,#4]
        0x00000f5c:    1900        ..      ADDS     r0,r0,r4
        0x00000f5e:    3008        .0      ADDS     r0,r0,#8
        0x00000f60:    4904        .I      LDR      r1,[pc,#16] ; [0xf74] = 0x2000002c
        0x00000f62:    5c08        .\      LDRB     r0,[r1,r0]
        0x00000f64:    9000        ..      STR      r0,[sp,#0]
        0x00000f66:    9800        ..      LDR      r0,[sp,#0]
        0x00000f68:    f000f886    ....    BL       WriteData ; 0x1078
        0x00000f6c:    1c64        d.      ADDS     r4,r4,#1
        0x00000f6e:    2c08        .,      CMP      r4,#8
        0x00000f70:    dbe9        ..      BLT      0xf46 ; Show_Word + 70
        0x00000f72:    bdfc        ..      POP      {r2-r7,pc}
    $d
        0x00000f74:    2000002c    ,..     DCD    536870956
    $t
    i.SystemCoreClockUpdate
    SystemCoreClockUpdate
        0x00000f78:    b570        p.      PUSH     {r4-r6,lr}
        0x00000f7a:    4820         H      LDR      r0,[pc,#128] ; [0xffc] = 0x50000200
        0x00000f7c:    6900        .i      LDR      r0,[r0,#0x10]
        0x00000f7e:    0746        F.      LSLS     r6,r0,#29
        0x00000f80:    0f76        v.      LSRS     r6,r6,#29
        0x00000f82:    2e05        ..      CMP      r6,#5
        0x00000f84:    d900        ..      BLS      0xf88 ; SystemCoreClockUpdate + 16
        0x00000f86:    2604        .&      MOVS     r6,#4
        0x00000f88:    2e02        ..      CMP      r6,#2
        0x00000f8a:    d003        ..      BEQ      0xf94 ; SystemCoreClockUpdate + 28
        0x00000f8c:    00b0        ..      LSLS     r0,r6,#2
        0x00000f8e:    491c        .I      LDR      r1,[pc,#112] ; [0x1000] = 0x20000008
        0x00000f90:    580d        .X      LDR      r5,[r1,r0]
        0x00000f92:    e01e        ..      B        0xfd2 ; SystemCoreClockUpdate + 90
        0x00000f94:    4819        .H      LDR      r0,[pc,#100] ; [0xffc] = 0x50000200
        0x00000f96:    6a00        .j      LDR      r0,[r0,#0x20]
        0x00000f98:    0400        ..      LSLS     r0,r0,#16
        0x00000f9a:    0f84        ..      LSRS     r4,r0,#30
        0x00000f9c:    2c01        .,      CMP      r4,#1
        0x00000f9e:    d900        ..      BLS      0xfa2 ; SystemCoreClockUpdate + 42
        0x00000fa0:    1e64        d.      SUBS     r4,r4,#1
        0x00000fa2:    4a16        .J      LDR      r2,[pc,#88] ; [0xffc] = 0x50000200
        0x00000fa4:    6a12        .j      LDR      r2,[r2,#0x20]
        0x00000fa6:    0312        ..      LSLS     r2,r2,#12
        0x00000fa8:    0fd2        ..      LSRS     r2,r2,#31
        0x00000faa:    d001        ..      BEQ      0xfb0 ; SystemCoreClockUpdate + 56
        0x00000fac:    4a15        .J      LDR      r2,[pc,#84] ; [0x1004] = 0x1518000
        0x00000fae:    e000        ..      B        0xfb2 ; SystemCoreClockUpdate + 58
        0x00000fb0:    4a15        .J      LDR      r2,[pc,#84] ; [0x1008] = 0xb71b00
        0x00000fb2:    4b12        .K      LDR      r3,[pc,#72] ; [0xffc] = 0x50000200
        0x00000fb4:    6a1b        .j      LDR      r3,[r3,#0x20]
        0x00000fb6:    05db        ..      LSLS     r3,r3,#23
        0x00000fb8:    0ddb        ..      LSRS     r3,r3,#23
        0x00000fba:    1c9b        ..      ADDS     r3,r3,#2
        0x00000fbc:    4610        .F      MOV      r0,r2
        0x00000fbe:    4358        XC      MULS     r0,r3,r0
        0x00000fc0:    4a0e        .J      LDR      r2,[pc,#56] ; [0xffc] = 0x50000200
        0x00000fc2:    6a12        .j      LDR      r2,[r2,#0x20]
        0x00000fc4:    0492        ..      LSLS     r2,r2,#18
        0x00000fc6:    0ed2        ..      LSRS     r2,r2,#27
        0x00000fc8:    1c91        ..      ADDS     r1,r2,#2
        0x00000fca:    f7fff9d9    ....    BL       __aeabi_uidiv ; 0x380
        0x00000fce:    40e0        .@      LSRS     r0,r0,r4
        0x00000fd0:    4605        .F      MOV      r5,r0
        0x00000fd2:    480a        .H      LDR      r0,[pc,#40] ; [0xffc] = 0x50000200
        0x00000fd4:    6980        .i      LDR      r0,[r0,#0x18]
        0x00000fd6:    0700        ..      LSLS     r0,r0,#28
        0x00000fd8:    0f00        ..      LSRS     r0,r0,#28
        0x00000fda:    1c41        A.      ADDS     r1,r0,#1
        0x00000fdc:    4628        (F      MOV      r0,r5
        0x00000fde:    f7fff9cf    ....    BL       __aeabi_uidiv ; 0x380
        0x00000fe2:    490a        .I      LDR      r1,[pc,#40] ; [0x100c] = 0x20000000
        0x00000fe4:    6008        .`      STR      r0,[r1,#0]
        0x00000fe6:    490a        .I      LDR      r1,[pc,#40] ; [0x1010] = 0xf4240
        0x00000fe8:    4808        .H      LDR      r0,[pc,#32] ; [0x100c] = 0x20000000
        0x00000fea:    6800        .h      LDR      r0,[r0,#0]
        0x00000fec:    104a        J.      ASRS     r2,r1,#1
        0x00000fee:    1880        ..      ADDS     r0,r0,r2
        0x00000ff0:    f7fff9c6    ....    BL       __aeabi_uidiv ; 0x380
        0x00000ff4:    4907        .I      LDR      r1,[pc,#28] ; [0x1014] = 0x20000004
        0x00000ff6:    6008        .`      STR      r0,[r1,#0]
        0x00000ff8:    bd70        p.      POP      {r4-r6,pc}
    $d
        0x00000ffa:    0000        ..      DCW    0
        0x00000ffc:    50000200    ...P    DCD    1342177792
        0x00001000:    20000008    ...     DCD    536870920
        0x00001004:    01518000    ..Q.    DCD    22118400
        0x00001008:    00b71b00    ....    DCD    12000000
        0x0000100c:    20000000    ...     DCD    536870912
        0x00001010:    000f4240    @B..    DCD    1000000
        0x00001014:    20000004    ...     DCD    536870916
    $t
    i.SystemInit
    SystemInit
        0x00001018:    4770        pG      BX       lr
        0x0000101a:    0000        ..      MOVS     r0,r0
    i.UART02_IRQHandler
    UART02_IRQHandler
        0x0000101c:    b570        p.      PUSH     {r4-r6,lr}
        0x0000101e:    480a        .H      LDR      r0,[pc,#40] ; [0x1048] = 0x40050000
        0x00001020:    69c4        .i      LDR      r4,[r0,#0x1c]
        0x00001022:    480a        .H      LDR      r0,[pc,#40] ; [0x104c] = 0x40154000
        0x00001024:    69c5        .i      LDR      r5,[r0,#0x1c]
        0x00001026:    480a        .H      LDR      r0,[pc,#40] ; [0x1050] = 0x20000624
        0x00001028:    6800        .h      LDR      r0,[r0,#0]
        0x0000102a:    2800        .(      CMP      r0,#0
        0x0000102c:    d003        ..      BEQ      0x1036 ; UART02_IRQHandler + 26
        0x0000102e:    4620         F      MOV      r0,r4
        0x00001030:    4907        .I      LDR      r1,[pc,#28] ; [0x1050] = 0x20000624
        0x00001032:    6809        .h      LDR      r1,[r1,#0]
        0x00001034:    4788        .G      BLX      r1
        0x00001036:    4807        .H      LDR      r0,[pc,#28] ; [0x1054] = 0x2000062c
        0x00001038:    6800        .h      LDR      r0,[r0,#0]
        0x0000103a:    2800        .(      CMP      r0,#0
        0x0000103c:    d003        ..      BEQ      0x1046 ; UART02_IRQHandler + 42
        0x0000103e:    4628        (F      MOV      r0,r5
        0x00001040:    4904        .I      LDR      r1,[pc,#16] ; [0x1054] = 0x2000062c
        0x00001042:    6809        .h      LDR      r1,[r1,#0]
        0x00001044:    4788        .G      BLX      r1
        0x00001046:    bd70        p.      POP      {r4-r6,pc}
    $d
        0x00001048:    40050000    ...@    DCD    1074069504
        0x0000104c:    40154000    .@.@    DCD    1075134464
        0x00001050:    20000624    $..     DCD    536872484
        0x00001054:    2000062c    ,..     DCD    536872492
    $t
    i.UART1_IRQHandler
    UART1_IRQHandler
        0x00001058:    b510        ..      PUSH     {r4,lr}
        0x0000105a:    4805        .H      LDR      r0,[pc,#20] ; [0x1070] = 0x40150000
        0x0000105c:    69c4        .i      LDR      r4,[r0,#0x1c]
        0x0000105e:    4805        .H      LDR      r0,[pc,#20] ; [0x1074] = 0x20000628
        0x00001060:    6800        .h      LDR      r0,[r0,#0]
        0x00001062:    2800        .(      CMP      r0,#0
        0x00001064:    d003        ..      BEQ      0x106e ; UART1_IRQHandler + 22
        0x00001066:    4620         F      MOV      r0,r4
        0x00001068:    4902        .I      LDR      r1,[pc,#8] ; [0x1074] = 0x20000628
        0x0000106a:    6809        .h      LDR      r1,[r1,#0]
        0x0000106c:    4788        .G      BLX      r1
        0x0000106e:    bd10        ..      POP      {r4,pc}
    $d
        0x00001070:    40150000    ...@    DCD    1075118080
        0x00001074:    20000628    (..     DCD    536872488
    $t
    i.WriteData
    WriteData
        0x00001078:    4914        .I      LDR      r1,[pc,#80] ; [0x10cc] = 0x2000001c
        0x0000107a:    68c9        .h      LDR      r1,[r1,#0xc]
        0x0000107c:    6889        .h      LDR      r1,[r1,#8]
        0x0000107e:    0889        ..      LSRS     r1,r1,#2
        0x00001080:    0089        ..      LSLS     r1,r1,#2
        0x00001082:    1c49        I.      ADDS     r1,r1,#1
        0x00001084:    4a11        .J      LDR      r2,[pc,#68] ; [0x10cc] = 0x2000001c
        0x00001086:    68d2        .h      LDR      r2,[r2,#0xc]
        0x00001088:    6091        .`      STR      r1,[r2,#8]
        0x0000108a:    21ff        .!      MOVS     r1,#0xff
        0x0000108c:    3101        .1      ADDS     r1,#1
        0x0000108e:    4301        .C      ORRS     r1,r1,r0
        0x00001090:    4a0e        .J      LDR      r2,[pc,#56] ; [0x10cc] = 0x2000001c
        0x00001092:    68d2        .h      LDR      r2,[r2,#0xc]
        0x00001094:    6211        .b      STR      r1,[r2,#0x20]
        0x00001096:    490d        .I      LDR      r1,[pc,#52] ; [0x10cc] = 0x2000001c
        0x00001098:    68c9        .h      LDR      r1,[r1,#0xc]
        0x0000109a:    6809        .h      LDR      r1,[r1,#0]
        0x0000109c:    0849        I.      LSRS     r1,r1,#1
        0x0000109e:    0049        I.      LSLS     r1,r1,#1
        0x000010a0:    1c49        I.      ADDS     r1,r1,#1
        0x000010a2:    4a0a        .J      LDR      r2,[pc,#40] ; [0x10cc] = 0x2000001c
        0x000010a4:    68d2        .h      LDR      r2,[r2,#0xc]
        0x000010a6:    6011        .`      STR      r1,[r2,#0]
        0x000010a8:    bf00        ..      NOP      
        0x000010aa:    4908        .I      LDR      r1,[pc,#32] ; [0x10cc] = 0x2000001c
        0x000010ac:    68c9        .h      LDR      r1,[r1,#0xc]
        0x000010ae:    6809        .h      LDR      r1,[r1,#0]
        0x000010b0:    07c9        ..      LSLS     r1,r1,#31
        0x000010b2:    0fc9        ..      LSRS     r1,r1,#31
        0x000010b4:    2901        .)      CMP      r1,#1
        0x000010b6:    d0f8        ..      BEQ      0x10aa ; WriteData + 50
        0x000010b8:    4904        .I      LDR      r1,[pc,#16] ; [0x10cc] = 0x2000001c
        0x000010ba:    68c9        .h      LDR      r1,[r1,#0xc]
        0x000010bc:    6889        .h      LDR      r1,[r1,#8]
        0x000010be:    0889        ..      LSRS     r1,r1,#2
        0x000010c0:    0089        ..      LSLS     r1,r1,#2
        0x000010c2:    4a02        .J      LDR      r2,[pc,#8] ; [0x10cc] = 0x2000001c
        0x000010c4:    68d2        .h      LDR      r2,[r2,#0xc]
        0x000010c6:    6091        .`      STR      r1,[r2,#8]
        0x000010c8:    4770        pG      BX       lr
    $d
        0x000010ca:    0000        ..      DCW    0
        0x000010cc:    2000001c    ...     DCD    536870940
    $t
    i._is_digit
    _is_digit
        0x000010d0:    3830        08      SUBS     r0,r0,#0x30
        0x000010d2:    280a        .(      CMP      r0,#0xa
        0x000010d4:    d201        ..      BCS      0x10da ; _is_digit + 10
        0x000010d6:    2001        .       MOVS     r0,#1
        0x000010d8:    4770        pG      BX       lr
        0x000010da:    2000        .       MOVS     r0,#0
        0x000010dc:    4770        pG      BX       lr
    i.clr_all_panel
    clr_all_panel
        0x000010de:    b510        ..      PUSH     {r4,lr}
        0x000010e0:    2400        .$      MOVS     r4,#0
        0x000010e2:    2100        .!      MOVS     r1,#0
        0x000010e4:    4608        .F      MOV      r0,r1
        0x000010e6:    f7fffe91    ....    BL       SetPACA ; 0xe0c
        0x000010ea:    bf00        ..      NOP      
        0x000010ec:    e003        ..      B        0x10f6 ; clr_all_panel + 24
        0x000010ee:    2000        .       MOVS     r0,#0
        0x000010f0:    f7ffffc2    ....    BL       WriteData ; 0x1078
        0x000010f4:    1c64        d.      ADDS     r4,r4,#1
        0x000010f6:    2021        !       MOVS     r0,#0x21
        0x000010f8:    0140        @.      LSLS     r0,r0,#5
        0x000010fa:    4284        .B      CMP      r4,r0
        0x000010fc:    dbf7        ..      BLT      0x10ee ; clr_all_panel + 16
        0x000010fe:    200f        .       MOVS     r0,#0xf
        0x00001100:    f7ffffba    ....    BL       WriteData ; 0x1078
        0x00001104:    bd10        ..      POP      {r4,pc}
        0x00001106:    0000        ..      MOVS     r0,r0
    i.main
    main
        0x00001108:    b094        ..      SUB      sp,sp,#0x50
        0x0000110a:    2059        Y       MOVS     r0,#0x59
        0x0000110c:    4964        dI      LDR      r1,[pc,#400] ; [0x12a0] = 0x50000100
        0x0000110e:    6008        .`      STR      r0,[r1,#0]
        0x00001110:    2016        .       MOVS     r0,#0x16
        0x00001112:    6008        .`      STR      r0,[r1,#0]
        0x00001114:    2088        .       MOVS     r0,#0x88
        0x00001116:    6008        .`      STR      r0,[r1,#0]
        0x00001118:    4862        bH      LDR      r0,[pc,#392] ; [0x12a4] = 0x2dc6c00
        0x0000111a:    f7fffb95    ....    BL       DrvSYS_Open ; 0x848
        0x0000111e:    2000        .       MOVS     r0,#0
        0x00001120:    495f        _I      LDR      r1,[pc,#380] ; [0x12a0] = 0x50000100
        0x00001122:    6008        .`      STR      r0,[r1,#0]
        0x00001124:    2201        ."      MOVS     r2,#1
        0x00001126:    210b        .!      MOVS     r1,#0xb
        0x00001128:    4610        .F      MOV      r0,r2
        0x0000112a:    f7fffabd    ....    BL       DrvGPIO_Open ; 0x6a8
        0x0000112e:    f7fffc85    ....    BL       Initial_panel ; 0xa3c
        0x00001132:    f7ffffd4    ....    BL       clr_all_panel ; 0x10de
        0x00001136:    e0b1        ..      B        0x129c ; main + 404
        0x00001138:    a15b        [.      ADR      r1,{pc}+0x170 ; 0x12a8
        0x0000113a:    a80f        ..      ADD      r0,sp,#0x3c
        0x0000113c:    f7fff84e    ..N.    BL       __2sprintf ; 0x1dc
        0x00001140:    a15d        ].      ADR      r1,{pc}+0x178 ; 0x12b8
        0x00001142:    4668        hF      MOV      r0,sp
        0x00001144:    f7fff84a    ..J.    BL       __2sprintf ; 0x1dc
        0x00001148:    a160        `.      ADR      r1,{pc}+0x184 ; 0x12cc
        0x0000114a:    a80a        ..      ADD      r0,sp,#0x28
        0x0000114c:    f7fff846    ..F.    BL       __2sprintf ; 0x1dc
        0x00001150:    210e        .!      MOVS     r1,#0xe
        0x00001152:    2000        .       MOVS     r0,#0
        0x00001154:    f7fffa92    ....    BL       DrvGPIO_ClrBit ; 0x67c
        0x00001158:    240a        .$      MOVS     r4,#0xa
        0x0000115a:    e024        $.      B        0x11a6 ; main + 158
        0x0000115c:    a90a        ..      ADD      r1,sp,#0x28
        0x0000115e:    2001        .       MOVS     r0,#1
        0x00001160:    f000f8d2    ....    BL       print_lcd ; 0x1308
        0x00001164:    4622        "F      MOV      r2,r4
        0x00001166:    a15c        \.      ADR      r1,{pc}+0x172 ; 0x12d8
        0x00001168:    a805        ..      ADD      r0,sp,#0x14
        0x0000116a:    f7fff837    ..7.    BL       __2sprintf ; 0x1dc
        0x0000116e:    a905        ..      ADD      r1,sp,#0x14
        0x00001170:    2002        .       MOVS     r0,#2
        0x00001172:    f000f8c9    ....    BL       print_lcd ; 0x1308
        0x00001176:    a90f        ..      ADD      r1,sp,#0x3c
        0x00001178:    2000        .       MOVS     r0,#0
        0x0000117a:    f000f8c5    ....    BL       print_lcd ; 0x1308
        0x0000117e:    4669        iF      MOV      r1,sp
        0x00001180:    2003        .       MOVS     r0,#3
        0x00001182:    f000f8c1    ....    BL       print_lcd ; 0x1308
        0x00001186:    4859        YH      LDR      r0,[pc,#356] ; [0x12ec] = 0x493e0
        0x00001188:    f7fffae0    ....    BL       DrvSYS_Delay ; 0x74c
        0x0000118c:    4857        WH      LDR      r0,[pc,#348] ; [0x12ec] = 0x493e0
        0x0000118e:    f7fffadd    ....    BL       DrvSYS_Delay ; 0x74c
        0x00001192:    4856        VH      LDR      r0,[pc,#344] ; [0x12ec] = 0x493e0
        0x00001194:    f7fffada    ....    BL       DrvSYS_Delay ; 0x74c
        0x00001198:    4854        TH      LDR      r0,[pc,#336] ; [0x12ec] = 0x493e0
        0x0000119a:    f7fffad7    ....    BL       DrvSYS_Delay ; 0x74c
        0x0000119e:    f7ffff9e    ....    BL       clr_all_panel ; 0x10de
        0x000011a2:    1e60        `.      SUBS     r0,r4,#1
        0x000011a4:    b2c4        ..      UXTB     r4,r0
        0x000011a6:    2c00        .,      CMP      r4,#0
        0x000011a8:    dcd8        ..      BGT      0x115c ; main + 84
        0x000011aa:    a151        Q.      ADR      r1,{pc}+0x146 ; 0x12f0
        0x000011ac:    a80a        ..      ADD      r0,sp,#0x28
        0x000011ae:    f7fff815    ....    BL       __2sprintf ; 0x1dc
        0x000011b2:    210e        .!      MOVS     r1,#0xe
        0x000011b4:    2000        .       MOVS     r0,#0
        0x000011b6:    f7fffab3    ....    BL       DrvGPIO_SetBit ; 0x720
        0x000011ba:    210d        .!      MOVS     r1,#0xd
        0x000011bc:    2000        .       MOVS     r0,#0
        0x000011be:    f7fffa5d    ..].    BL       DrvGPIO_ClrBit ; 0x67c
        0x000011c2:    2414        .$      MOVS     r4,#0x14
        0x000011c4:    e024        $.      B        0x1210 ; main + 264
        0x000011c6:    a90a        ..      ADD      r1,sp,#0x28
        0x000011c8:    2001        .       MOVS     r0,#1
        0x000011ca:    f000f89d    ....    BL       print_lcd ; 0x1308
        0x000011ce:    4622        "F      MOV      r2,r4
        0x000011d0:    a141        A.      ADR      r1,{pc}+0x108 ; 0x12d8
        0x000011d2:    a805        ..      ADD      r0,sp,#0x14
        0x000011d4:    f7fff802    ....    BL       __2sprintf ; 0x1dc
        0x000011d8:    a905        ..      ADD      r1,sp,#0x14
        0x000011da:    2002        .       MOVS     r0,#2
        0x000011dc:    f000f894    ....    BL       print_lcd ; 0x1308
        0x000011e0:    a90f        ..      ADD      r1,sp,#0x3c
        0x000011e2:    2000        .       MOVS     r0,#0
        0x000011e4:    f000f890    ....    BL       print_lcd ; 0x1308
        0x000011e8:    4669        iF      MOV      r1,sp
        0x000011ea:    2003        .       MOVS     r0,#3
        0x000011ec:    f000f88c    ....    BL       print_lcd ; 0x1308
        0x000011f0:    483e        >H      LDR      r0,[pc,#248] ; [0x12ec] = 0x493e0
        0x000011f2:    f7fffaab    ....    BL       DrvSYS_Delay ; 0x74c
        0x000011f6:    483d        =H      LDR      r0,[pc,#244] ; [0x12ec] = 0x493e0
        0x000011f8:    f7fffaa8    ....    BL       DrvSYS_Delay ; 0x74c
        0x000011fc:    483b        ;H      LDR      r0,[pc,#236] ; [0x12ec] = 0x493e0
        0x000011fe:    f7fffaa5    ....    BL       DrvSYS_Delay ; 0x74c
        0x00001202:    483a        :H      LDR      r0,[pc,#232] ; [0x12ec] = 0x493e0
        0x00001204:    f7fffaa2    ....    BL       DrvSYS_Delay ; 0x74c
        0x00001208:    f7ffff69    ..i.    BL       clr_all_panel ; 0x10de
        0x0000120c:    1e60        `.      SUBS     r0,r4,#1
        0x0000120e:    b2c4        ..      UXTB     r4,r0
        0x00001210:    2c00        .,      CMP      r4,#0
        0x00001212:    dcd8        ..      BGT      0x11c6 ; main + 190
        0x00001214:    f7ffff63    ..c.    BL       clr_all_panel ; 0x10de
        0x00001218:    a138        8.      ADR      r1,{pc}+0xe4 ; 0x12fc
        0x0000121a:    a80a        ..      ADD      r0,sp,#0x28
        0x0000121c:    f7feffde    ....    BL       __2sprintf ; 0x1dc
        0x00001220:    210e        .!      MOVS     r1,#0xe
        0x00001222:    2000        .       MOVS     r0,#0
        0x00001224:    f7fffa2a    ..*.    BL       DrvGPIO_ClrBit ; 0x67c
        0x00001228:    2405        .$      MOVS     r4,#5
        0x0000122a:    e02c        ,.      B        0x1286 ; main + 382
        0x0000122c:    a90a        ..      ADD      r1,sp,#0x28
        0x0000122e:    2001        .       MOVS     r0,#1
        0x00001230:    f000f86a    ..j.    BL       print_lcd ; 0x1308
        0x00001234:    4622        "F      MOV      r2,r4
        0x00001236:    a128        (.      ADR      r1,{pc}+0xa2 ; 0x12d8
        0x00001238:    a805        ..      ADD      r0,sp,#0x14
        0x0000123a:    f7feffcf    ....    BL       __2sprintf ; 0x1dc
        0x0000123e:    a905        ..      ADD      r1,sp,#0x14
        0x00001240:    2002        .       MOVS     r0,#2
        0x00001242:    f000f861    ..a.    BL       print_lcd ; 0x1308
        0x00001246:    a90f        ..      ADD      r1,sp,#0x3c
        0x00001248:    2000        .       MOVS     r0,#0
        0x0000124a:    f000f85d    ..].    BL       print_lcd ; 0x1308
        0x0000124e:    4669        iF      MOV      r1,sp
        0x00001250:    2003        .       MOVS     r0,#3
        0x00001252:    f000f859    ..Y.    BL       print_lcd ; 0x1308
        0x00001256:    210b        .!      MOVS     r1,#0xb
        0x00001258:    2001        .       MOVS     r0,#1
        0x0000125a:    f7fffa0f    ....    BL       DrvGPIO_ClrBit ; 0x67c
        0x0000125e:    4823        #H      LDR      r0,[pc,#140] ; [0x12ec] = 0x493e0
        0x00001260:    f7fffa74    ..t.    BL       DrvSYS_Delay ; 0x74c
        0x00001264:    210b        .!      MOVS     r1,#0xb
        0x00001266:    2001        .       MOVS     r0,#1
        0x00001268:    f7fffa5a    ..Z.    BL       DrvGPIO_SetBit ; 0x720
        0x0000126c:    481f        .H      LDR      r0,[pc,#124] ; [0x12ec] = 0x493e0
        0x0000126e:    f7fffa6d    ..m.    BL       DrvSYS_Delay ; 0x74c
        0x00001272:    481e        .H      LDR      r0,[pc,#120] ; [0x12ec] = 0x493e0
        0x00001274:    f7fffa6a    ..j.    BL       DrvSYS_Delay ; 0x74c
        0x00001278:    481c        .H      LDR      r0,[pc,#112] ; [0x12ec] = 0x493e0
        0x0000127a:    f7fffa67    ..g.    BL       DrvSYS_Delay ; 0x74c
        0x0000127e:    f7ffff2e    ....    BL       clr_all_panel ; 0x10de
        0x00001282:    1e60        `.      SUBS     r0,r4,#1
        0x00001284:    b2c4        ..      UXTB     r4,r0
        0x00001286:    2c00        .,      CMP      r4,#0
        0x00001288:    dcd0        ..      BGT      0x122c ; main + 292
        0x0000128a:    210e        .!      MOVS     r1,#0xe
        0x0000128c:    2000        .       MOVS     r0,#0
        0x0000128e:    f7fffa47    ..G.    BL       DrvGPIO_SetBit ; 0x720
        0x00001292:    210d        .!      MOVS     r1,#0xd
        0x00001294:    2000        .       MOVS     r0,#0
        0x00001296:    f7fffa43    ..C.    BL       DrvGPIO_SetBit ; 0x720
        0x0000129a:    bf00        ..      NOP      
        0x0000129c:    e74c        L.      B        0x1138 ; main + 48
    $d
        0x0000129e:    0000        ..      DCW    0
        0x000012a0:    50000100    ...P    DCD    1342177536
        0x000012a4:    02dc6c00    .l..    DCD    48000000
        0x000012a8:    41525420     TRA    DCD    1095914528
        0x000012ac:    43494646    FFIC    DCD    1128875590
        0x000012b0:    494c2020      LI    DCD    1229725728
        0x000012b4:    00544847    GHT.    DCD    5523527
        0x000012b8:    2a2a2a2a    ****    DCD    707406378
        0x000012bc:    2a2a2a2a    ****    DCD    707406378
        0x000012c0:    2a2a2a2a    ****    DCD    707406378
        0x000012c4:    2a2a2a2a    ****    DCD    707406378
        0x000012c8:    00000000    ....    DCD    0
        0x000012cc:    20202020            DCD    538976288
        0x000012d0:    65522020      Re    DCD    1699880992
        0x000012d4:    00000064    d...    DCD    100
        0x000012d8:    2e2e2e2e    ....    DCD    774778414
        0x000012dc:    25202e2e    .. %    DCD    622865966
        0x000012e0:    2e2e2064    d ..    DCD    774774884
        0x000012e4:    2e2e2e2e    ....    DCD    774778414
        0x000012e8:    00000000    ....    DCD    0
        0x000012ec:    000493e0    ....    DCD    300000
        0x000012f0:    20202020            DCD    538976288
        0x000012f4:    65724720     Gre    DCD    1701988128
        0x000012f8:    00006e65    en..    DCD    28261
        0x000012fc:    20202020            DCD    538976288
        0x00001300:    6c655920     Yel    DCD    1818581280
        0x00001304:    00776f6c    low.    DCD    7827308
    $t
    i.print_lcd
    print_lcd
        0x00001308:    b570        p.      PUSH     {r4-r6,lr}
        0x0000130a:    4606        .F      MOV      r6,r0
        0x0000130c:    460c        .F      MOV      r4,r1
        0x0000130e:    2500        .%      MOVS     r5,#0
        0x00001310:    bf00        ..      NOP      
        0x00001312:    7822        "x      LDRB     r2,[r4,#0]
        0x00001314:    1c64        d.      ADDS     r4,r4,#1
        0x00001316:    b2e9        ..      UXTB     r1,r5
        0x00001318:    4630        0F      MOV      r0,r6
        0x0000131a:    f7fffdf1    ....    BL       Show_Word ; 0xf00
        0x0000131e:    1c6d        m.      ADDS     r5,r5,#1
        0x00001320:    2d0f        .-      CMP      r5,#0xf
        0x00001322:    dd00        ..      BLE      0x1326 ; print_lcd + 30
        0x00001324:    e002        ..      B        0x132c ; print_lcd + 36
        0x00001326:    7820         x      LDRB     r0,[r4,#0]
        0x00001328:    2800        .(      CMP      r0,#0
        0x0000132a:    d1f2        ..      BNE      0x1312 ; print_lcd + 10
        0x0000132c:    bf00        ..      NOP      
        0x0000132e:    bd70        p.      POP      {r4-r6,pc}
    $d.realdata
    Region$$Table$$Base
        0x00001330:    00001350    P...    DCD    4944
        0x00001334:    20000000    ...     DCD    536870912
        0x00001338:    00000640    @...    DCD    1600
        0x0000133c:    00000104    ....    DCD    260
        0x00001340:    00001990    ....    DCD    6544
        0x00001344:    20000640    @..     DCD    536872512
        0x00001348:    000004b0    ....    DCD    1200
        0x0000134c:    00000120     ...    DCD    288
    Region$$Table$$Limit

** Section #2 'ER_RW' (SHT_PROGBITS) [SHF_ALLOC + SHF_WRITE]
    Size   : 1600 bytes (alignment 4)
    Address: 0x20000000


** Section #3 'ER_ZI' (SHT_NOBITS) [SHF_ALLOC + SHF_WRITE]
    Size   : 1200 bytes (alignment 8)
    Address: 0x20000640


** Section #4 '.debug_abbrev' (SHT_PROGBITS)
    Size   : 1476 bytes


** Section #5 '.debug_frame' (SHT_PROGBITS)
    Size   : 1584 bytes


** Section #6 '.debug_info' (SHT_PROGBITS)
    Size   : 116648 bytes


** Section #7 '.debug_line' (SHT_PROGBITS)
    Size   : 6832 bytes


** Section #8 '.debug_loc' (SHT_PROGBITS)
    Size   : 2032 bytes


** Section #9 '.debug_macinfo' (SHT_PROGBITS)
    Size   : 143716 bytes


** Section #10 '.debug_pubnames' (SHT_PROGBITS)
    Size   : 1284 bytes


** Section #11 '.symtab' (SHT_SYMTAB)
    Size   : 6736 bytes (alignment 4)
    String table #12 '.strtab'
    Last local symbol no. 278


** Section #12 '.strtab' (SHT_STRTAB)
    Size   : 5772 bytes


** Section #13 '.note' (SHT_NOTE)
    Size   : 28 bytes (alignment 4)


** Section #14 '.comment' (SHT_PROGBITS)
    Size   : 5832 bytes


** Section #15 '.shstrtab' (SHT_STRTAB)
    Size   : 156 bytes


